
TRAFFIC_LED.elf:     file format elf32-littlearm

Sections:
Idx Name          Size      VMA       LMA       File off  Algn
  0 .isr_vector   000000c0  08000000  08000000  00010000  2**0
                  CONTENTS, ALLOC, LOAD, READONLY, DATA
  1 .text         00001834  080000c0  080000c0  000100c0  2**2
                  CONTENTS, ALLOC, LOAD, READONLY, CODE
  2 .rodata       00000030  080018f4  080018f4  000118f4  2**0
                  CONTENTS, ALLOC, LOAD, READONLY, DATA
  3 .ARM.extab    00000000  08001924  08001924  00020024  2**0
                  CONTENTS
  4 .ARM          00000000  08001924  08001924  00020024  2**0
                  CONTENTS
  5 .preinit_array 00000000  08001924  08001924  00020024  2**0
                  CONTENTS, ALLOC, LOAD, DATA
  6 .init_array   00000004  08001924  08001924  00011924  2**2
                  CONTENTS, ALLOC, LOAD, DATA
  7 .fini_array   00000004  08001928  08001928  00011928  2**2
                  CONTENTS, ALLOC, LOAD, DATA
  8 .data         00000024  20000000  0800192c  00020000  2**2
                  CONTENTS, ALLOC, LOAD, DATA
  9 .bss          000000a4  20000024  08001950  00020024  2**2
                  ALLOC
 10 ._user_heap_stack 00000600  200000c8  08001950  000200c8  2**0
                  ALLOC
 11 .ARM.attributes 00000028  00000000  00000000  00020024  2**0
                  CONTENTS, READONLY
 12 .comment      00000053  00000000  00000000  0002004c  2**0
                  CONTENTS, READONLY
 13 .debug_frame  0000008c  00000000  00000000  000200a0  2**2
                  CONTENTS, READONLY, DEBUGGING, OCTETS

Disassembly of section .text:

080000c0 <__do_global_dtors_aux>:
 80000c0:	b510      	push	{r4, lr}
 80000c2:	4c06      	ldr	r4, [pc, #24]	; (80000dc <__do_global_dtors_aux+0x1c>)
 80000c4:	7823      	ldrb	r3, [r4, #0]
 80000c6:	2b00      	cmp	r3, #0
 80000c8:	d107      	bne.n	80000da <__do_global_dtors_aux+0x1a>
 80000ca:	4b05      	ldr	r3, [pc, #20]	; (80000e0 <__do_global_dtors_aux+0x20>)
 80000cc:	2b00      	cmp	r3, #0
 80000ce:	d002      	beq.n	80000d6 <__do_global_dtors_aux+0x16>
 80000d0:	4804      	ldr	r0, [pc, #16]	; (80000e4 <__do_global_dtors_aux+0x24>)
 80000d2:	e000      	b.n	80000d6 <__do_global_dtors_aux+0x16>
 80000d4:	bf00      	nop
 80000d6:	2301      	movs	r3, #1
 80000d8:	7023      	strb	r3, [r4, #0]
 80000da:	bd10      	pop	{r4, pc}
 80000dc:	20000024 	.word	0x20000024
 80000e0:	00000000 	.word	0x00000000
 80000e4:	080018dc 	.word	0x080018dc

080000e8 <frame_dummy>:
 80000e8:	4b04      	ldr	r3, [pc, #16]	; (80000fc <frame_dummy+0x14>)
 80000ea:	b510      	push	{r4, lr}
 80000ec:	2b00      	cmp	r3, #0
 80000ee:	d003      	beq.n	80000f8 <frame_dummy+0x10>
 80000f0:	4903      	ldr	r1, [pc, #12]	; (8000100 <frame_dummy+0x18>)
 80000f2:	4804      	ldr	r0, [pc, #16]	; (8000104 <frame_dummy+0x1c>)
 80000f4:	e000      	b.n	80000f8 <frame_dummy+0x10>
 80000f6:	bf00      	nop
 80000f8:	bd10      	pop	{r4, pc}
 80000fa:	46c0      	nop			; (mov r8, r8)
 80000fc:	00000000 	.word	0x00000000
 8000100:	20000028 	.word	0x20000028
 8000104:	080018dc 	.word	0x080018dc

08000108 <__gnu_thumb1_case_uqi>:
 8000108:	b402      	push	{r1}
 800010a:	4671      	mov	r1, lr
 800010c:	0849      	lsrs	r1, r1, #1
 800010e:	0049      	lsls	r1, r1, #1
 8000110:	5c09      	ldrb	r1, [r1, r0]
 8000112:	0049      	lsls	r1, r1, #1
 8000114:	448e      	add	lr, r1
 8000116:	bc02      	pop	{r1}
 8000118:	4770      	bx	lr
 800011a:	46c0      	nop			; (mov r8, r8)

0800011c <__gnu_thumb1_case_uhi>:
 800011c:	b403      	push	{r0, r1}
 800011e:	4671      	mov	r1, lr
 8000120:	0849      	lsrs	r1, r1, #1
 8000122:	0040      	lsls	r0, r0, #1
 8000124:	0049      	lsls	r1, r1, #1
 8000126:	5a09      	ldrh	r1, [r1, r0]
 8000128:	0049      	lsls	r1, r1, #1
 800012a:	448e      	add	lr, r1
 800012c:	bc03      	pop	{r0, r1}
 800012e:	4770      	bx	lr

08000130 <__udivsi3>:
 8000130:	2200      	movs	r2, #0
 8000132:	0843      	lsrs	r3, r0, #1
 8000134:	428b      	cmp	r3, r1
 8000136:	d374      	bcc.n	8000222 <__udivsi3+0xf2>
 8000138:	0903      	lsrs	r3, r0, #4
 800013a:	428b      	cmp	r3, r1
 800013c:	d35f      	bcc.n	80001fe <__udivsi3+0xce>
 800013e:	0a03      	lsrs	r3, r0, #8
 8000140:	428b      	cmp	r3, r1
 8000142:	d344      	bcc.n	80001ce <__udivsi3+0x9e>
 8000144:	0b03      	lsrs	r3, r0, #12
 8000146:	428b      	cmp	r3, r1
 8000148:	d328      	bcc.n	800019c <__udivsi3+0x6c>
 800014a:	0c03      	lsrs	r3, r0, #16
 800014c:	428b      	cmp	r3, r1
 800014e:	d30d      	bcc.n	800016c <__udivsi3+0x3c>
 8000150:	22ff      	movs	r2, #255	; 0xff
 8000152:	0209      	lsls	r1, r1, #8
 8000154:	ba12      	rev	r2, r2
 8000156:	0c03      	lsrs	r3, r0, #16
 8000158:	428b      	cmp	r3, r1
 800015a:	d302      	bcc.n	8000162 <__udivsi3+0x32>
 800015c:	1212      	asrs	r2, r2, #8
 800015e:	0209      	lsls	r1, r1, #8
 8000160:	d065      	beq.n	800022e <__udivsi3+0xfe>
 8000162:	0b03      	lsrs	r3, r0, #12
 8000164:	428b      	cmp	r3, r1
 8000166:	d319      	bcc.n	800019c <__udivsi3+0x6c>
 8000168:	e000      	b.n	800016c <__udivsi3+0x3c>
 800016a:	0a09      	lsrs	r1, r1, #8
 800016c:	0bc3      	lsrs	r3, r0, #15
 800016e:	428b      	cmp	r3, r1
 8000170:	d301      	bcc.n	8000176 <__udivsi3+0x46>
 8000172:	03cb      	lsls	r3, r1, #15
 8000174:	1ac0      	subs	r0, r0, r3
 8000176:	4152      	adcs	r2, r2
 8000178:	0b83      	lsrs	r3, r0, #14
 800017a:	428b      	cmp	r3, r1
 800017c:	d301      	bcc.n	8000182 <__udivsi3+0x52>
 800017e:	038b      	lsls	r3, r1, #14
 8000180:	1ac0      	subs	r0, r0, r3
 8000182:	4152      	adcs	r2, r2
 8000184:	0b43      	lsrs	r3, r0, #13
 8000186:	428b      	cmp	r3, r1
 8000188:	d301      	bcc.n	800018e <__udivsi3+0x5e>
 800018a:	034b      	lsls	r3, r1, #13
 800018c:	1ac0      	subs	r0, r0, r3
 800018e:	4152      	adcs	r2, r2
 8000190:	0b03      	lsrs	r3, r0, #12
 8000192:	428b      	cmp	r3, r1
 8000194:	d301      	bcc.n	800019a <__udivsi3+0x6a>
 8000196:	030b      	lsls	r3, r1, #12
 8000198:	1ac0      	subs	r0, r0, r3
 800019a:	4152      	adcs	r2, r2
 800019c:	0ac3      	lsrs	r3, r0, #11
 800019e:	428b      	cmp	r3, r1
 80001a0:	d301      	bcc.n	80001a6 <__udivsi3+0x76>
 80001a2:	02cb      	lsls	r3, r1, #11
 80001a4:	1ac0      	subs	r0, r0, r3
 80001a6:	4152      	adcs	r2, r2
 80001a8:	0a83      	lsrs	r3, r0, #10
 80001aa:	428b      	cmp	r3, r1
 80001ac:	d301      	bcc.n	80001b2 <__udivsi3+0x82>
 80001ae:	028b      	lsls	r3, r1, #10
 80001b0:	1ac0      	subs	r0, r0, r3
 80001b2:	4152      	adcs	r2, r2
 80001b4:	0a43      	lsrs	r3, r0, #9
 80001b6:	428b      	cmp	r3, r1
 80001b8:	d301      	bcc.n	80001be <__udivsi3+0x8e>
 80001ba:	024b      	lsls	r3, r1, #9
 80001bc:	1ac0      	subs	r0, r0, r3
 80001be:	4152      	adcs	r2, r2
 80001c0:	0a03      	lsrs	r3, r0, #8
 80001c2:	428b      	cmp	r3, r1
 80001c4:	d301      	bcc.n	80001ca <__udivsi3+0x9a>
 80001c6:	020b      	lsls	r3, r1, #8
 80001c8:	1ac0      	subs	r0, r0, r3
 80001ca:	4152      	adcs	r2, r2
 80001cc:	d2cd      	bcs.n	800016a <__udivsi3+0x3a>
 80001ce:	09c3      	lsrs	r3, r0, #7
 80001d0:	428b      	cmp	r3, r1
 80001d2:	d301      	bcc.n	80001d8 <__udivsi3+0xa8>
 80001d4:	01cb      	lsls	r3, r1, #7
 80001d6:	1ac0      	subs	r0, r0, r3
 80001d8:	4152      	adcs	r2, r2
 80001da:	0983      	lsrs	r3, r0, #6
 80001dc:	428b      	cmp	r3, r1
 80001de:	d301      	bcc.n	80001e4 <__udivsi3+0xb4>
 80001e0:	018b      	lsls	r3, r1, #6
 80001e2:	1ac0      	subs	r0, r0, r3
 80001e4:	4152      	adcs	r2, r2
 80001e6:	0943      	lsrs	r3, r0, #5
 80001e8:	428b      	cmp	r3, r1
 80001ea:	d301      	bcc.n	80001f0 <__udivsi3+0xc0>
 80001ec:	014b      	lsls	r3, r1, #5
 80001ee:	1ac0      	subs	r0, r0, r3
 80001f0:	4152      	adcs	r2, r2
 80001f2:	0903      	lsrs	r3, r0, #4
 80001f4:	428b      	cmp	r3, r1
 80001f6:	d301      	bcc.n	80001fc <__udivsi3+0xcc>
 80001f8:	010b      	lsls	r3, r1, #4
 80001fa:	1ac0      	subs	r0, r0, r3
 80001fc:	4152      	adcs	r2, r2
 80001fe:	08c3      	lsrs	r3, r0, #3
 8000200:	428b      	cmp	r3, r1
 8000202:	d301      	bcc.n	8000208 <__udivsi3+0xd8>
 8000204:	00cb      	lsls	r3, r1, #3
 8000206:	1ac0      	subs	r0, r0, r3
 8000208:	4152      	adcs	r2, r2
 800020a:	0883      	lsrs	r3, r0, #2
 800020c:	428b      	cmp	r3, r1
 800020e:	d301      	bcc.n	8000214 <__udivsi3+0xe4>
 8000210:	008b      	lsls	r3, r1, #2
 8000212:	1ac0      	subs	r0, r0, r3
 8000214:	4152      	adcs	r2, r2
 8000216:	0843      	lsrs	r3, r0, #1
 8000218:	428b      	cmp	r3, r1
 800021a:	d301      	bcc.n	8000220 <__udivsi3+0xf0>
 800021c:	004b      	lsls	r3, r1, #1
 800021e:	1ac0      	subs	r0, r0, r3
 8000220:	4152      	adcs	r2, r2
 8000222:	1a41      	subs	r1, r0, r1
 8000224:	d200      	bcs.n	8000228 <__udivsi3+0xf8>
 8000226:	4601      	mov	r1, r0
 8000228:	4152      	adcs	r2, r2
 800022a:	4610      	mov	r0, r2
 800022c:	4770      	bx	lr
 800022e:	e7ff      	b.n	8000230 <__udivsi3+0x100>
 8000230:	b501      	push	{r0, lr}
 8000232:	2000      	movs	r0, #0
 8000234:	f000 f8f0 	bl	8000418 <__aeabi_idiv0>
 8000238:	bd02      	pop	{r1, pc}
 800023a:	46c0      	nop			; (mov r8, r8)

0800023c <__aeabi_uidivmod>:
 800023c:	2900      	cmp	r1, #0
 800023e:	d0f7      	beq.n	8000230 <__udivsi3+0x100>
 8000240:	e776      	b.n	8000130 <__udivsi3>
 8000242:	4770      	bx	lr

08000244 <__divsi3>:
 8000244:	4603      	mov	r3, r0
 8000246:	430b      	orrs	r3, r1
 8000248:	d47f      	bmi.n	800034a <__divsi3+0x106>
 800024a:	2200      	movs	r2, #0
 800024c:	0843      	lsrs	r3, r0, #1
 800024e:	428b      	cmp	r3, r1
 8000250:	d374      	bcc.n	800033c <__divsi3+0xf8>
 8000252:	0903      	lsrs	r3, r0, #4
 8000254:	428b      	cmp	r3, r1
 8000256:	d35f      	bcc.n	8000318 <__divsi3+0xd4>
 8000258:	0a03      	lsrs	r3, r0, #8
 800025a:	428b      	cmp	r3, r1
 800025c:	d344      	bcc.n	80002e8 <__divsi3+0xa4>
 800025e:	0b03      	lsrs	r3, r0, #12
 8000260:	428b      	cmp	r3, r1
 8000262:	d328      	bcc.n	80002b6 <__divsi3+0x72>
 8000264:	0c03      	lsrs	r3, r0, #16
 8000266:	428b      	cmp	r3, r1
 8000268:	d30d      	bcc.n	8000286 <__divsi3+0x42>
 800026a:	22ff      	movs	r2, #255	; 0xff
 800026c:	0209      	lsls	r1, r1, #8
 800026e:	ba12      	rev	r2, r2
 8000270:	0c03      	lsrs	r3, r0, #16
 8000272:	428b      	cmp	r3, r1
 8000274:	d302      	bcc.n	800027c <__divsi3+0x38>
 8000276:	1212      	asrs	r2, r2, #8
 8000278:	0209      	lsls	r1, r1, #8
 800027a:	d065      	beq.n	8000348 <__divsi3+0x104>
 800027c:	0b03      	lsrs	r3, r0, #12
 800027e:	428b      	cmp	r3, r1
 8000280:	d319      	bcc.n	80002b6 <__divsi3+0x72>
 8000282:	e000      	b.n	8000286 <__divsi3+0x42>
 8000284:	0a09      	lsrs	r1, r1, #8
 8000286:	0bc3      	lsrs	r3, r0, #15
 8000288:	428b      	cmp	r3, r1
 800028a:	d301      	bcc.n	8000290 <__divsi3+0x4c>
 800028c:	03cb      	lsls	r3, r1, #15
 800028e:	1ac0      	subs	r0, r0, r3
 8000290:	4152      	adcs	r2, r2
 8000292:	0b83      	lsrs	r3, r0, #14
 8000294:	428b      	cmp	r3, r1
 8000296:	d301      	bcc.n	800029c <__divsi3+0x58>
 8000298:	038b      	lsls	r3, r1, #14
 800029a:	1ac0      	subs	r0, r0, r3
 800029c:	4152      	adcs	r2, r2
 800029e:	0b43      	lsrs	r3, r0, #13
 80002a0:	428b      	cmp	r3, r1
 80002a2:	d301      	bcc.n	80002a8 <__divsi3+0x64>
 80002a4:	034b      	lsls	r3, r1, #13
 80002a6:	1ac0      	subs	r0, r0, r3
 80002a8:	4152      	adcs	r2, r2
 80002aa:	0b03      	lsrs	r3, r0, #12
 80002ac:	428b      	cmp	r3, r1
 80002ae:	d301      	bcc.n	80002b4 <__divsi3+0x70>
 80002b0:	030b      	lsls	r3, r1, #12
 80002b2:	1ac0      	subs	r0, r0, r3
 80002b4:	4152      	adcs	r2, r2
 80002b6:	0ac3      	lsrs	r3, r0, #11
 80002b8:	428b      	cmp	r3, r1
 80002ba:	d301      	bcc.n	80002c0 <__divsi3+0x7c>
 80002bc:	02cb      	lsls	r3, r1, #11
 80002be:	1ac0      	subs	r0, r0, r3
 80002c0:	4152      	adcs	r2, r2
 80002c2:	0a83      	lsrs	r3, r0, #10
 80002c4:	428b      	cmp	r3, r1
 80002c6:	d301      	bcc.n	80002cc <__divsi3+0x88>
 80002c8:	028b      	lsls	r3, r1, #10
 80002ca:	1ac0      	subs	r0, r0, r3
 80002cc:	4152      	adcs	r2, r2
 80002ce:	0a43      	lsrs	r3, r0, #9
 80002d0:	428b      	cmp	r3, r1
 80002d2:	d301      	bcc.n	80002d8 <__divsi3+0x94>
 80002d4:	024b      	lsls	r3, r1, #9
 80002d6:	1ac0      	subs	r0, r0, r3
 80002d8:	4152      	adcs	r2, r2
 80002da:	0a03      	lsrs	r3, r0, #8
 80002dc:	428b      	cmp	r3, r1
 80002de:	d301      	bcc.n	80002e4 <__divsi3+0xa0>
 80002e0:	020b      	lsls	r3, r1, #8
 80002e2:	1ac0      	subs	r0, r0, r3
 80002e4:	4152      	adcs	r2, r2
 80002e6:	d2cd      	bcs.n	8000284 <__divsi3+0x40>
 80002e8:	09c3      	lsrs	r3, r0, #7
 80002ea:	428b      	cmp	r3, r1
 80002ec:	d301      	bcc.n	80002f2 <__divsi3+0xae>
 80002ee:	01cb      	lsls	r3, r1, #7
 80002f0:	1ac0      	subs	r0, r0, r3
 80002f2:	4152      	adcs	r2, r2
 80002f4:	0983      	lsrs	r3, r0, #6
 80002f6:	428b      	cmp	r3, r1
 80002f8:	d301      	bcc.n	80002fe <__divsi3+0xba>
 80002fa:	018b      	lsls	r3, r1, #6
 80002fc:	1ac0      	subs	r0, r0, r3
 80002fe:	4152      	adcs	r2, r2
 8000300:	0943      	lsrs	r3, r0, #5
 8000302:	428b      	cmp	r3, r1
 8000304:	d301      	bcc.n	800030a <__divsi3+0xc6>
 8000306:	014b      	lsls	r3, r1, #5
 8000308:	1ac0      	subs	r0, r0, r3
 800030a:	4152      	adcs	r2, r2
 800030c:	0903      	lsrs	r3, r0, #4
 800030e:	428b      	cmp	r3, r1
 8000310:	d301      	bcc.n	8000316 <__divsi3+0xd2>
 8000312:	010b      	lsls	r3, r1, #4
 8000314:	1ac0      	subs	r0, r0, r3
 8000316:	4152      	adcs	r2, r2
 8000318:	08c3      	lsrs	r3, r0, #3
 800031a:	428b      	cmp	r3, r1
 800031c:	d301      	bcc.n	8000322 <__divsi3+0xde>
 800031e:	00cb      	lsls	r3, r1, #3
 8000320:	1ac0      	subs	r0, r0, r3
 8000322:	4152      	adcs	r2, r2
 8000324:	0883      	lsrs	r3, r0, #2
 8000326:	428b      	cmp	r3, r1
 8000328:	d301      	bcc.n	800032e <__divsi3+0xea>
 800032a:	008b      	lsls	r3, r1, #2
 800032c:	1ac0      	subs	r0, r0, r3
 800032e:	4152      	adcs	r2, r2
 8000330:	0843      	lsrs	r3, r0, #1
 8000332:	428b      	cmp	r3, r1
 8000334:	d301      	bcc.n	800033a <__divsi3+0xf6>
 8000336:	004b      	lsls	r3, r1, #1
 8000338:	1ac0      	subs	r0, r0, r3
 800033a:	4152      	adcs	r2, r2
 800033c:	1a41      	subs	r1, r0, r1
 800033e:	d200      	bcs.n	8000342 <__divsi3+0xfe>
 8000340:	4601      	mov	r1, r0
 8000342:	4152      	adcs	r2, r2
 8000344:	4610      	mov	r0, r2
 8000346:	4770      	bx	lr
 8000348:	e05d      	b.n	8000406 <__divsi3+0x1c2>
 800034a:	0fca      	lsrs	r2, r1, #31
 800034c:	d000      	beq.n	8000350 <__divsi3+0x10c>
 800034e:	4249      	negs	r1, r1
 8000350:	1003      	asrs	r3, r0, #32
 8000352:	d300      	bcc.n	8000356 <__divsi3+0x112>
 8000354:	4240      	negs	r0, r0
 8000356:	4053      	eors	r3, r2
 8000358:	2200      	movs	r2, #0
 800035a:	469c      	mov	ip, r3
 800035c:	0903      	lsrs	r3, r0, #4
 800035e:	428b      	cmp	r3, r1
 8000360:	d32d      	bcc.n	80003be <__divsi3+0x17a>
 8000362:	0a03      	lsrs	r3, r0, #8
 8000364:	428b      	cmp	r3, r1
 8000366:	d312      	bcc.n	800038e <__divsi3+0x14a>
 8000368:	22fc      	movs	r2, #252	; 0xfc
 800036a:	0189      	lsls	r1, r1, #6
 800036c:	ba12      	rev	r2, r2
 800036e:	0a03      	lsrs	r3, r0, #8
 8000370:	428b      	cmp	r3, r1
 8000372:	d30c      	bcc.n	800038e <__divsi3+0x14a>
 8000374:	0189      	lsls	r1, r1, #6
 8000376:	1192      	asrs	r2, r2, #6
 8000378:	428b      	cmp	r3, r1
 800037a:	d308      	bcc.n	800038e <__divsi3+0x14a>
 800037c:	0189      	lsls	r1, r1, #6
 800037e:	1192      	asrs	r2, r2, #6
 8000380:	428b      	cmp	r3, r1
 8000382:	d304      	bcc.n	800038e <__divsi3+0x14a>
 8000384:	0189      	lsls	r1, r1, #6
 8000386:	d03a      	beq.n	80003fe <__divsi3+0x1ba>
 8000388:	1192      	asrs	r2, r2, #6
 800038a:	e000      	b.n	800038e <__divsi3+0x14a>
 800038c:	0989      	lsrs	r1, r1, #6
 800038e:	09c3      	lsrs	r3, r0, #7
 8000390:	428b      	cmp	r3, r1
 8000392:	d301      	bcc.n	8000398 <__divsi3+0x154>
 8000394:	01cb      	lsls	r3, r1, #7
 8000396:	1ac0      	subs	r0, r0, r3
 8000398:	4152      	adcs	r2, r2
 800039a:	0983      	lsrs	r3, r0, #6
 800039c:	428b      	cmp	r3, r1
 800039e:	d301      	bcc.n	80003a4 <__divsi3+0x160>
 80003a0:	018b      	lsls	r3, r1, #6
 80003a2:	1ac0      	subs	r0, r0, r3
 80003a4:	4152      	adcs	r2, r2
 80003a6:	0943      	lsrs	r3, r0, #5
 80003a8:	428b      	cmp	r3, r1
 80003aa:	d301      	bcc.n	80003b0 <__divsi3+0x16c>
 80003ac:	014b      	lsls	r3, r1, #5
 80003ae:	1ac0      	subs	r0, r0, r3
 80003b0:	4152      	adcs	r2, r2
 80003b2:	0903      	lsrs	r3, r0, #4
 80003b4:	428b      	cmp	r3, r1
 80003b6:	d301      	bcc.n	80003bc <__divsi3+0x178>
 80003b8:	010b      	lsls	r3, r1, #4
 80003ba:	1ac0      	subs	r0, r0, r3
 80003bc:	4152      	adcs	r2, r2
 80003be:	08c3      	lsrs	r3, r0, #3
 80003c0:	428b      	cmp	r3, r1
 80003c2:	d301      	bcc.n	80003c8 <__divsi3+0x184>
 80003c4:	00cb      	lsls	r3, r1, #3
 80003c6:	1ac0      	subs	r0, r0, r3
 80003c8:	4152      	adcs	r2, r2
 80003ca:	0883      	lsrs	r3, r0, #2
 80003cc:	428b      	cmp	r3, r1
 80003ce:	d301      	bcc.n	80003d4 <__divsi3+0x190>
 80003d0:	008b      	lsls	r3, r1, #2
 80003d2:	1ac0      	subs	r0, r0, r3
 80003d4:	4152      	adcs	r2, r2
 80003d6:	d2d9      	bcs.n	800038c <__divsi3+0x148>
 80003d8:	0843      	lsrs	r3, r0, #1
 80003da:	428b      	cmp	r3, r1
 80003dc:	d301      	bcc.n	80003e2 <__divsi3+0x19e>
 80003de:	004b      	lsls	r3, r1, #1
 80003e0:	1ac0      	subs	r0, r0, r3
 80003e2:	4152      	adcs	r2, r2
 80003e4:	1a41      	subs	r1, r0, r1
 80003e6:	d200      	bcs.n	80003ea <__divsi3+0x1a6>
 80003e8:	4601      	mov	r1, r0
 80003ea:	4663      	mov	r3, ip
 80003ec:	4152      	adcs	r2, r2
 80003ee:	105b      	asrs	r3, r3, #1
 80003f0:	4610      	mov	r0, r2
 80003f2:	d301      	bcc.n	80003f8 <__divsi3+0x1b4>
 80003f4:	4240      	negs	r0, r0
 80003f6:	2b00      	cmp	r3, #0
 80003f8:	d500      	bpl.n	80003fc <__divsi3+0x1b8>
 80003fa:	4249      	negs	r1, r1
 80003fc:	4770      	bx	lr
 80003fe:	4663      	mov	r3, ip
 8000400:	105b      	asrs	r3, r3, #1
 8000402:	d300      	bcc.n	8000406 <__divsi3+0x1c2>
 8000404:	4240      	negs	r0, r0
 8000406:	b501      	push	{r0, lr}
 8000408:	2000      	movs	r0, #0
 800040a:	f000 f805 	bl	8000418 <__aeabi_idiv0>
 800040e:	bd02      	pop	{r1, pc}

08000410 <__aeabi_idivmod>:
 8000410:	2900      	cmp	r1, #0
 8000412:	d0f8      	beq.n	8000406 <__divsi3+0x1c2>
 8000414:	e716      	b.n	8000244 <__divsi3>
 8000416:	4770      	bx	lr

08000418 <__aeabi_idiv0>:
 8000418:	4770      	bx	lr
 800041a:	46c0      	nop			; (mov r8, r8)

0800041c <getKeyinput>:
 800041c:	b570      	push	{r4, r5, r6, lr}
 800041e:	4c19      	ldr	r4, [pc, #100]	; (8000484 <getKeyinput+0x68>)
 8000420:	68e5      	ldr	r5, [r4, #12]
 8000422:	2d01      	cmp	r5, #1
 8000424:	d12c      	bne.n	8000480 <getKeyinput+0x64>
 8000426:	2090      	movs	r0, #144	; 0x90
 8000428:	2180      	movs	r1, #128	; 0x80
 800042a:	05c0      	lsls	r0, r0, #23
 800042c:	f000 fd44 	bl	8000eb8 <HAL_GPIO_ReadPin>
 8000430:	2800      	cmp	r0, #0
 8000432:	d105      	bne.n	8000440 <getKeyinput+0x24>
 8000434:	4b14      	ldr	r3, [pc, #80]	; (8000488 <getKeyinput+0x6c>)
 8000436:	21c8      	movs	r1, #200	; 0xc8
 8000438:	3003      	adds	r0, #3
 800043a:	601d      	str	r5, [r3, #0]
 800043c:	f000 fb9c 	bl	8000b78 <setTimer>
 8000440:	68e5      	ldr	r5, [r4, #12]
 8000442:	2d01      	cmp	r5, #1
 8000444:	d11c      	bne.n	8000480 <getKeyinput+0x64>
 8000446:	2090      	movs	r0, #144	; 0x90
 8000448:	2108      	movs	r1, #8
 800044a:	05c0      	lsls	r0, r0, #23
 800044c:	f000 fd34 	bl	8000eb8 <HAL_GPIO_ReadPin>
 8000450:	2800      	cmp	r0, #0
 8000452:	d105      	bne.n	8000460 <getKeyinput+0x44>
 8000454:	4b0c      	ldr	r3, [pc, #48]	; (8000488 <getKeyinput+0x6c>)
 8000456:	21c8      	movs	r1, #200	; 0xc8
 8000458:	3003      	adds	r0, #3
 800045a:	605d      	str	r5, [r3, #4]
 800045c:	f000 fb8c 	bl	8000b78 <setTimer>
 8000460:	68e4      	ldr	r4, [r4, #12]
 8000462:	2c01      	cmp	r4, #1
 8000464:	d10c      	bne.n	8000480 <getKeyinput+0x64>
 8000466:	2090      	movs	r0, #144	; 0x90
 8000468:	2102      	movs	r1, #2
 800046a:	05c0      	lsls	r0, r0, #23
 800046c:	f000 fd24 	bl	8000eb8 <HAL_GPIO_ReadPin>
 8000470:	2800      	cmp	r0, #0
 8000472:	d105      	bne.n	8000480 <getKeyinput+0x64>
 8000474:	21c8      	movs	r1, #200	; 0xc8
 8000476:	3003      	adds	r0, #3
 8000478:	f000 fb7e 	bl	8000b78 <setTimer>
 800047c:	4b02      	ldr	r3, [pc, #8]	; (8000488 <getKeyinput+0x6c>)
 800047e:	609c      	str	r4, [r3, #8]
 8000480:	bd70      	pop	{r4, r5, r6, pc}
 8000482:	46c0      	nop			; (mov r8, r8)
 8000484:	2000000c 	.word	0x2000000c
 8000488:	20000040 	.word	0x20000040

0800048c <isButtonPress>:
 800048c:	4904      	ldr	r1, [pc, #16]	; (80004a0 <isButtonPress+0x14>)
 800048e:	0083      	lsls	r3, r0, #2
 8000490:	5858      	ldr	r0, [r3, r1]
 8000492:	2200      	movs	r2, #0
 8000494:	2801      	cmp	r0, #1
 8000496:	d101      	bne.n	800049c <isButtonPress+0x10>
 8000498:	505a      	str	r2, [r3, r1]
 800049a:	4770      	bx	lr
 800049c:	0010      	movs	r0, r2
 800049e:	e7fc      	b.n	800049a <isButtonPress+0xe>
 80004a0:	20000040 	.word	0x20000040

080004a4 <fsm_auto_run>:
 80004a4:	b570      	push	{r4, r5, r6, lr}
 80004a6:	4c8c      	ldr	r4, [pc, #560]	; (80006d8 <fsm_auto_run+0x234>)
 80004a8:	6820      	ldr	r0, [r4, #0]
 80004aa:	2804      	cmp	r0, #4
 80004ac:	d900      	bls.n	80004b0 <fsm_auto_run+0xc>
 80004ae:	e0f1      	b.n	8000694 <fsm_auto_run+0x1f0>
 80004b0:	4d8a      	ldr	r5, [pc, #552]	; (80006dc <fsm_auto_run+0x238>)
 80004b2:	f7ff fe33 	bl	800011c <__gnu_thumb1_case_uhi>
 80004b6:	0005      	.short	0x0005
 80004b8:	0097004b 	.word	0x0097004b
 80004bc:	00f000bb 	.word	0x00f000bb
 80004c0:	2180      	movs	r1, #128	; 0x80
 80004c2:	2090      	movs	r0, #144	; 0x90
 80004c4:	2201      	movs	r2, #1
 80004c6:	0149      	lsls	r1, r1, #5
 80004c8:	05c0      	lsls	r0, r0, #23
 80004ca:	f000 fcfb 	bl	8000ec4 <HAL_GPIO_WritePin>
 80004ce:	2090      	movs	r0, #144	; 0x90
 80004d0:	2201      	movs	r2, #1
 80004d2:	2110      	movs	r1, #16
 80004d4:	05c0      	lsls	r0, r0, #23
 80004d6:	f000 fcf5 	bl	8000ec4 <HAL_GPIO_WritePin>
 80004da:	2180      	movs	r1, #128	; 0x80
 80004dc:	2090      	movs	r0, #144	; 0x90
 80004de:	2201      	movs	r2, #1
 80004e0:	0049      	lsls	r1, r1, #1
 80004e2:	05c0      	lsls	r0, r0, #23
 80004e4:	f000 fcee 	bl	8000ec4 <HAL_GPIO_WritePin>
 80004e8:	2090      	movs	r0, #144	; 0x90
 80004ea:	2601      	movs	r6, #1
 80004ec:	2201      	movs	r2, #1
 80004ee:	2104      	movs	r1, #4
 80004f0:	05c0      	lsls	r0, r0, #23
 80004f2:	f000 fce7 	bl	8000ec4 <HAL_GPIO_WritePin>
 80004f6:	2201      	movs	r2, #1
 80004f8:	2120      	movs	r1, #32
 80004fa:	4879      	ldr	r0, [pc, #484]	; (80006e0 <fsm_auto_run+0x23c>)
 80004fc:	f000 fce2 	bl	8000ec4 <HAL_GPIO_WritePin>
 8000500:	2201      	movs	r2, #1
 8000502:	2110      	movs	r1, #16
 8000504:	4876      	ldr	r0, [pc, #472]	; (80006e0 <fsm_auto_run+0x23c>)
 8000506:	f000 fcdd 	bl	8000ec4 <HAL_GPIO_WritePin>
 800050a:	21fa      	movs	r1, #250	; 0xfa
 800050c:	4b75      	ldr	r3, [pc, #468]	; (80006e4 <fsm_auto_run+0x240>)
 800050e:	6026      	str	r6, [r4, #0]
 8000510:	681c      	ldr	r4, [r3, #0]
 8000512:	4b75      	ldr	r3, [pc, #468]	; (80006e8 <fsm_auto_run+0x244>)
 8000514:	0089      	lsls	r1, r1, #2
 8000516:	6818      	ldr	r0, [r3, #0]
 8000518:	1820      	adds	r0, r4, r0
 800051a:	f7ff fe93 	bl	8000244 <__divsi3>
 800051e:	21fa      	movs	r1, #250	; 0xfa
 8000520:	4b72      	ldr	r3, [pc, #456]	; (80006ec <fsm_auto_run+0x248>)
 8000522:	0089      	lsls	r1, r1, #2
 8000524:	6018      	str	r0, [r3, #0]
 8000526:	0020      	movs	r0, r4
 8000528:	f7ff fe8c 	bl	8000244 <__divsi3>
 800052c:	4b70      	ldr	r3, [pc, #448]	; (80006f0 <fsm_auto_run+0x24c>)
 800052e:	0021      	movs	r1, r4
 8000530:	6018      	str	r0, [r3, #0]
 8000532:	2000      	movs	r0, #0
 8000534:	f000 fb20 	bl	8000b78 <setTimer>
 8000538:	21fa      	movs	r1, #250	; 0xfa
 800053a:	0030      	movs	r0, r6
 800053c:	0089      	lsls	r1, r1, #2
 800053e:	f000 fb1b 	bl	8000b78 <setTimer>
 8000542:	210a      	movs	r1, #10
 8000544:	2002      	movs	r0, #2
 8000546:	f000 fb17 	bl	8000b78 <setTimer>
 800054a:	e02e      	b.n	80005aa <fsm_auto_run+0x106>
 800054c:	2090      	movs	r0, #144	; 0x90
 800054e:	2201      	movs	r2, #1
 8000550:	2110      	movs	r1, #16
 8000552:	05c0      	lsls	r0, r0, #23
 8000554:	f000 fcb6 	bl	8000ec4 <HAL_GPIO_WritePin>
 8000558:	2090      	movs	r0, #144	; 0x90
 800055a:	2201      	movs	r2, #1
 800055c:	2104      	movs	r1, #4
 800055e:	05c0      	lsls	r0, r0, #23
 8000560:	f000 fcb0 	bl	8000ec4 <HAL_GPIO_WritePin>
 8000564:	2180      	movs	r1, #128	; 0x80
 8000566:	2090      	movs	r0, #144	; 0x90
 8000568:	2200      	movs	r2, #0
 800056a:	0149      	lsls	r1, r1, #5
 800056c:	05c0      	lsls	r0, r0, #23
 800056e:	f000 fca9 	bl	8000ec4 <HAL_GPIO_WritePin>
 8000572:	2200      	movs	r2, #0
 8000574:	2110      	movs	r1, #16
 8000576:	485a      	ldr	r0, [pc, #360]	; (80006e0 <fsm_auto_run+0x23c>)
 8000578:	f000 fca4 	bl	8000ec4 <HAL_GPIO_WritePin>
 800057c:	682b      	ldr	r3, [r5, #0]
 800057e:	2b01      	cmp	r3, #1
 8000580:	d10d      	bne.n	800059e <fsm_auto_run+0xfa>
 8000582:	4e59      	ldr	r6, [pc, #356]	; (80006e8 <fsm_auto_run+0x244>)
 8000584:	3301      	adds	r3, #1
 8000586:	2000      	movs	r0, #0
 8000588:	6831      	ldr	r1, [r6, #0]
 800058a:	6023      	str	r3, [r4, #0]
 800058c:	f000 faf4 	bl	8000b78 <setTimer>
 8000590:	21fa      	movs	r1, #250	; 0xfa
 8000592:	6830      	ldr	r0, [r6, #0]
 8000594:	0089      	lsls	r1, r1, #2
 8000596:	f7ff fe55 	bl	8000244 <__divsi3>
 800059a:	4b55      	ldr	r3, [pc, #340]	; (80006f0 <fsm_auto_run+0x24c>)
 800059c:	6018      	str	r0, [r3, #0]
 800059e:	2001      	movs	r0, #1
 80005a0:	f7ff ff74 	bl	800048c <isButtonPress>
 80005a4:	2305      	movs	r3, #5
 80005a6:	2801      	cmp	r0, #1
 80005a8:	d071      	beq.n	800068e <fsm_auto_run+0x1ea>
 80005aa:	4c51      	ldr	r4, [pc, #324]	; (80006f0 <fsm_auto_run+0x24c>)
 80005ac:	4e4f      	ldr	r6, [pc, #316]	; (80006ec <fsm_auto_run+0x248>)
 80005ae:	6821      	ldr	r1, [r4, #0]
 80005b0:	6830      	ldr	r0, [r6, #0]
 80005b2:	f000 f9b1 	bl	8000918 <updateClockBuffer>
 80005b6:	68ab      	ldr	r3, [r5, #8]
 80005b8:	2b01      	cmp	r3, #1
 80005ba:	d105      	bne.n	80005c8 <fsm_auto_run+0x124>
 80005bc:	210a      	movs	r1, #10
 80005be:	2002      	movs	r0, #2
 80005c0:	f000 fada 	bl	8000b78 <setTimer>
 80005c4:	f000 f96e 	bl	80008a4 <Scan7SEG>
 80005c8:	6868      	ldr	r0, [r5, #4]
 80005ca:	2801      	cmp	r0, #1
 80005cc:	d162      	bne.n	8000694 <fsm_auto_run+0x1f0>
 80005ce:	21fa      	movs	r1, #250	; 0xfa
 80005d0:	0089      	lsls	r1, r1, #2
 80005d2:	f000 fad1 	bl	8000b78 <setTimer>
 80005d6:	6833      	ldr	r3, [r6, #0]
 80005d8:	3b01      	subs	r3, #1
 80005da:	6033      	str	r3, [r6, #0]
 80005dc:	6823      	ldr	r3, [r4, #0]
 80005de:	3b01      	subs	r3, #1
 80005e0:	6023      	str	r3, [r4, #0]
 80005e2:	e057      	b.n	8000694 <fsm_auto_run+0x1f0>
 80005e4:	2201      	movs	r2, #1
 80005e6:	2110      	movs	r1, #16
 80005e8:	483d      	ldr	r0, [pc, #244]	; (80006e0 <fsm_auto_run+0x23c>)
 80005ea:	f000 fc6b 	bl	8000ec4 <HAL_GPIO_WritePin>
 80005ee:	2200      	movs	r2, #0
 80005f0:	2120      	movs	r1, #32
 80005f2:	483b      	ldr	r0, [pc, #236]	; (80006e0 <fsm_auto_run+0x23c>)
 80005f4:	f000 fc66 	bl	8000ec4 <HAL_GPIO_WritePin>
 80005f8:	682b      	ldr	r3, [r5, #0]
 80005fa:	2b01      	cmp	r3, #1
 80005fc:	d1d5      	bne.n	80005aa <fsm_auto_run+0x106>
 80005fe:	21fa      	movs	r1, #250	; 0xfa
 8000600:	3302      	adds	r3, #2
 8000602:	6023      	str	r3, [r4, #0]
 8000604:	4b37      	ldr	r3, [pc, #220]	; (80006e4 <fsm_auto_run+0x240>)
 8000606:	0089      	lsls	r1, r1, #2
 8000608:	681c      	ldr	r4, [r3, #0]
 800060a:	0020      	movs	r0, r4
 800060c:	f7ff fe1a 	bl	8000244 <__divsi3>
 8000610:	21fa      	movs	r1, #250	; 0xfa
 8000612:	4b36      	ldr	r3, [pc, #216]	; (80006ec <fsm_auto_run+0x248>)
 8000614:	0089      	lsls	r1, r1, #2
 8000616:	6018      	str	r0, [r3, #0]
 8000618:	4b33      	ldr	r3, [pc, #204]	; (80006e8 <fsm_auto_run+0x244>)
 800061a:	6818      	ldr	r0, [r3, #0]
 800061c:	1820      	adds	r0, r4, r0
 800061e:	f7ff fe11 	bl	8000244 <__divsi3>
 8000622:	4b33      	ldr	r3, [pc, #204]	; (80006f0 <fsm_auto_run+0x24c>)
 8000624:	0021      	movs	r1, r4
 8000626:	6018      	str	r0, [r3, #0]
 8000628:	2000      	movs	r0, #0
 800062a:	e78c      	b.n	8000546 <fsm_auto_run+0xa2>
 800062c:	2180      	movs	r1, #128	; 0x80
 800062e:	2090      	movs	r0, #144	; 0x90
 8000630:	2201      	movs	r2, #1
 8000632:	0149      	lsls	r1, r1, #5
 8000634:	05c0      	lsls	r0, r0, #23
 8000636:	f000 fc45 	bl	8000ec4 <HAL_GPIO_WritePin>
 800063a:	2201      	movs	r2, #1
 800063c:	2120      	movs	r1, #32
 800063e:	4828      	ldr	r0, [pc, #160]	; (80006e0 <fsm_auto_run+0x23c>)
 8000640:	f000 fc40 	bl	8000ec4 <HAL_GPIO_WritePin>
 8000644:	2180      	movs	r1, #128	; 0x80
 8000646:	2090      	movs	r0, #144	; 0x90
 8000648:	2200      	movs	r2, #0
 800064a:	0049      	lsls	r1, r1, #1
 800064c:	05c0      	lsls	r0, r0, #23
 800064e:	f000 fc39 	bl	8000ec4 <HAL_GPIO_WritePin>
 8000652:	2090      	movs	r0, #144	; 0x90
 8000654:	2200      	movs	r2, #0
 8000656:	2104      	movs	r1, #4
 8000658:	05c0      	lsls	r0, r0, #23
 800065a:	f000 fc33 	bl	8000ec4 <HAL_GPIO_WritePin>
 800065e:	682b      	ldr	r3, [r5, #0]
 8000660:	2b01      	cmp	r3, #1
 8000662:	d10e      	bne.n	8000682 <fsm_auto_run+0x1de>
 8000664:	21fa      	movs	r1, #250	; 0xfa
 8000666:	3303      	adds	r3, #3
 8000668:	6023      	str	r3, [r4, #0]
 800066a:	4b1f      	ldr	r3, [pc, #124]	; (80006e8 <fsm_auto_run+0x244>)
 800066c:	0089      	lsls	r1, r1, #2
 800066e:	681e      	ldr	r6, [r3, #0]
 8000670:	0030      	movs	r0, r6
 8000672:	f7ff fde7 	bl	8000244 <__divsi3>
 8000676:	4b1d      	ldr	r3, [pc, #116]	; (80006ec <fsm_auto_run+0x248>)
 8000678:	0031      	movs	r1, r6
 800067a:	6018      	str	r0, [r3, #0]
 800067c:	2000      	movs	r0, #0
 800067e:	f000 fa7b 	bl	8000b78 <setTimer>
 8000682:	2001      	movs	r0, #1
 8000684:	f7ff ff02 	bl	800048c <isButtonPress>
 8000688:	2801      	cmp	r0, #1
 800068a:	d18e      	bne.n	80005aa <fsm_auto_run+0x106>
 800068c:	2306      	movs	r3, #6
 800068e:	6023      	str	r3, [r4, #0]
 8000690:	f000 f88c 	bl	80007ac <Diable_Led>
 8000694:	bd70      	pop	{r4, r5, r6, pc}
 8000696:	2090      	movs	r0, #144	; 0x90
 8000698:	2200      	movs	r2, #0
 800069a:	2110      	movs	r1, #16
 800069c:	05c0      	lsls	r0, r0, #23
 800069e:	f000 fc11 	bl	8000ec4 <HAL_GPIO_WritePin>
 80006a2:	2180      	movs	r1, #128	; 0x80
 80006a4:	2090      	movs	r0, #144	; 0x90
 80006a6:	2201      	movs	r2, #1
 80006a8:	0049      	lsls	r1, r1, #1
 80006aa:	05c0      	lsls	r0, r0, #23
 80006ac:	f000 fc0a 	bl	8000ec4 <HAL_GPIO_WritePin>
 80006b0:	682b      	ldr	r3, [r5, #0]
 80006b2:	2b01      	cmp	r3, #1
 80006b4:	d000      	beq.n	80006b8 <fsm_auto_run+0x214>
 80006b6:	e778      	b.n	80005aa <fsm_auto_run+0x106>
 80006b8:	21fa      	movs	r1, #250	; 0xfa
 80006ba:	6023      	str	r3, [r4, #0]
 80006bc:	4b09      	ldr	r3, [pc, #36]	; (80006e4 <fsm_auto_run+0x240>)
 80006be:	0089      	lsls	r1, r1, #2
 80006c0:	681c      	ldr	r4, [r3, #0]
 80006c2:	4b09      	ldr	r3, [pc, #36]	; (80006e8 <fsm_auto_run+0x244>)
 80006c4:	6818      	ldr	r0, [r3, #0]
 80006c6:	1820      	adds	r0, r4, r0
 80006c8:	f7ff fdbc 	bl	8000244 <__divsi3>
 80006cc:	21fa      	movs	r1, #250	; 0xfa
 80006ce:	4b07      	ldr	r3, [pc, #28]	; (80006ec <fsm_auto_run+0x248>)
 80006d0:	0089      	lsls	r1, r1, #2
 80006d2:	6018      	str	r0, [r3, #0]
 80006d4:	0020      	movs	r0, r4
 80006d6:	e7a2      	b.n	800061e <fsm_auto_run+0x17a>
 80006d8:	20000054 	.word	0x20000054
 80006dc:	2000000c 	.word	0x2000000c
 80006e0:	48000400 	.word	0x48000400
 80006e4:	20000000 	.word	0x20000000
 80006e8:	20000004 	.word	0x20000004
 80006ec:	2000004c 	.word	0x2000004c
 80006f0:	20000050 	.word	0x20000050

080006f4 <fsm_manual>:
 80006f4:	b510      	push	{r4, lr}
 80006f6:	4c2b      	ldr	r4, [pc, #172]	; (80007a4 <fsm_manual+0xb0>)
 80006f8:	6823      	ldr	r3, [r4, #0]
 80006fa:	2b05      	cmp	r3, #5
 80006fc:	d002      	beq.n	8000704 <fsm_manual+0x10>
 80006fe:	2b06      	cmp	r3, #6
 8000700:	d027      	beq.n	8000752 <fsm_manual+0x5e>
 8000702:	bd10      	pop	{r4, pc}
 8000704:	2180      	movs	r1, #128	; 0x80
 8000706:	2090      	movs	r0, #144	; 0x90
 8000708:	2200      	movs	r2, #0
 800070a:	0149      	lsls	r1, r1, #5
 800070c:	05c0      	lsls	r0, r0, #23
 800070e:	f000 fbd9 	bl	8000ec4 <HAL_GPIO_WritePin>
 8000712:	2200      	movs	r2, #0
 8000714:	2110      	movs	r1, #16
 8000716:	4824      	ldr	r0, [pc, #144]	; (80007a8 <fsm_manual+0xb4>)
 8000718:	f000 fbd4 	bl	8000ec4 <HAL_GPIO_WritePin>
 800071c:	2090      	movs	r0, #144	; 0x90
 800071e:	2201      	movs	r2, #1
 8000720:	2104      	movs	r1, #4
 8000722:	05c0      	lsls	r0, r0, #23
 8000724:	f000 fbce 	bl	8000ec4 <HAL_GPIO_WritePin>
 8000728:	2180      	movs	r1, #128	; 0x80
 800072a:	2090      	movs	r0, #144	; 0x90
 800072c:	2201      	movs	r2, #1
 800072e:	05c0      	lsls	r0, r0, #23
 8000730:	0049      	lsls	r1, r1, #1
 8000732:	f000 fbc7 	bl	8000ec4 <HAL_GPIO_WritePin>
 8000736:	2001      	movs	r0, #1
 8000738:	f7ff fea8 	bl	800048c <isButtonPress>
 800073c:	2801      	cmp	r0, #1
 800073e:	d101      	bne.n	8000744 <fsm_manual+0x50>
 8000740:	2306      	movs	r3, #6
 8000742:	6023      	str	r3, [r4, #0]
 8000744:	2000      	movs	r0, #0
 8000746:	f7ff fea1 	bl	800048c <isButtonPress>
 800074a:	2801      	cmp	r0, #1
 800074c:	d1d9      	bne.n	8000702 <fsm_manual+0xe>
 800074e:	6020      	str	r0, [r4, #0]
 8000750:	e7d7      	b.n	8000702 <fsm_manual+0xe>
 8000752:	2090      	movs	r0, #144	; 0x90
 8000754:	2200      	movs	r2, #0
 8000756:	2104      	movs	r1, #4
 8000758:	05c0      	lsls	r0, r0, #23
 800075a:	f000 fbb3 	bl	8000ec4 <HAL_GPIO_WritePin>
 800075e:	2180      	movs	r1, #128	; 0x80
 8000760:	2090      	movs	r0, #144	; 0x90
 8000762:	2200      	movs	r2, #0
 8000764:	0049      	lsls	r1, r1, #1
 8000766:	05c0      	lsls	r0, r0, #23
 8000768:	f000 fbac 	bl	8000ec4 <HAL_GPIO_WritePin>
 800076c:	2180      	movs	r1, #128	; 0x80
 800076e:	2090      	movs	r0, #144	; 0x90
 8000770:	2201      	movs	r2, #1
 8000772:	0149      	lsls	r1, r1, #5
 8000774:	05c0      	lsls	r0, r0, #23
 8000776:	f000 fba5 	bl	8000ec4 <HAL_GPIO_WritePin>
 800077a:	480b      	ldr	r0, [pc, #44]	; (80007a8 <fsm_manual+0xb4>)
 800077c:	2201      	movs	r2, #1
 800077e:	2110      	movs	r1, #16
 8000780:	f000 fba0 	bl	8000ec4 <HAL_GPIO_WritePin>
 8000784:	2001      	movs	r0, #1
 8000786:	f7ff fe81 	bl	800048c <isButtonPress>
 800078a:	2801      	cmp	r0, #1
 800078c:	d101      	bne.n	8000792 <fsm_manual+0x9e>
 800078e:	2305      	movs	r3, #5
 8000790:	6023      	str	r3, [r4, #0]
 8000792:	2000      	movs	r0, #0
 8000794:	f7ff fe7a 	bl	800048c <isButtonPress>
 8000798:	2801      	cmp	r0, #1
 800079a:	d1b2      	bne.n	8000702 <fsm_manual+0xe>
 800079c:	2303      	movs	r3, #3
 800079e:	6023      	str	r3, [r4, #0]
 80007a0:	e7af      	b.n	8000702 <fsm_manual+0xe>
 80007a2:	46c0      	nop			; (mov r8, r8)
 80007a4:	20000054 	.word	0x20000054
 80007a8:	48000400 	.word	0x48000400

080007ac <Diable_Led>:
 80007ac:	b510      	push	{r4, lr}
 80007ae:	2490      	movs	r4, #144	; 0x90
 80007b0:	05e4      	lsls	r4, r4, #23
 80007b2:	0020      	movs	r0, r4
 80007b4:	2200      	movs	r2, #0
 80007b6:	2101      	movs	r1, #1
 80007b8:	f000 fb84 	bl	8000ec4 <HAL_GPIO_WritePin>
 80007bc:	2200      	movs	r2, #0
 80007be:	2102      	movs	r1, #2
 80007c0:	4807      	ldr	r0, [pc, #28]	; (80007e0 <Diable_Led+0x34>)
 80007c2:	f000 fb7f 	bl	8000ec4 <HAL_GPIO_WritePin>
 80007c6:	2200      	movs	r2, #0
 80007c8:	2108      	movs	r1, #8
 80007ca:	4806      	ldr	r0, [pc, #24]	; (80007e4 <Diable_Led+0x38>)
 80007cc:	f000 fb7a 	bl	8000ec4 <HAL_GPIO_WritePin>
 80007d0:	2180      	movs	r1, #128	; 0x80
 80007d2:	2200      	movs	r2, #0
 80007d4:	0020      	movs	r0, r4
 80007d6:	0109      	lsls	r1, r1, #4
 80007d8:	f000 fb74 	bl	8000ec4 <HAL_GPIO_WritePin>
 80007dc:	bd10      	pop	{r4, pc}
 80007de:	46c0      	nop			; (mov r8, r8)
 80007e0:	48001400 	.word	0x48001400
 80007e4:	48000400 	.word	0x48000400

080007e8 <display7SEG>:
 80007e8:	b510      	push	{r4, lr}
 80007ea:	2809      	cmp	r0, #9
 80007ec:	d81a      	bhi.n	8000824 <display7SEG+0x3c>
 80007ee:	f7ff fc8b 	bl	8000108 <__gnu_thumb1_case_uqi>
 80007f2:	1a05      	.short	0x1a05
 80007f4:	3327241d 	.word	0x3327241d
 80007f8:	51403d36 	.word	0x51403d36
 80007fc:	2200      	movs	r2, #0
 80007fe:	2101      	movs	r1, #1
 8000800:	4826      	ldr	r0, [pc, #152]	; (800089c <display7SEG+0xb4>)
 8000802:	f000 fb5f 	bl	8000ec4 <HAL_GPIO_WritePin>
 8000806:	2200      	movs	r2, #0
 8000808:	2180      	movs	r1, #128	; 0x80
 800080a:	4825      	ldr	r0, [pc, #148]	; (80008a0 <display7SEG+0xb8>)
 800080c:	f000 fb5a 	bl	8000ec4 <HAL_GPIO_WritePin>
 8000810:	2200      	movs	r2, #0
 8000812:	2140      	movs	r1, #64	; 0x40
 8000814:	4822      	ldr	r0, [pc, #136]	; (80008a0 <display7SEG+0xb8>)
 8000816:	f000 fb55 	bl	8000ec4 <HAL_GPIO_WritePin>
 800081a:	2200      	movs	r2, #0
 800081c:	2102      	movs	r1, #2
 800081e:	4820      	ldr	r0, [pc, #128]	; (80008a0 <display7SEG+0xb8>)
 8000820:	f000 fb50 	bl	8000ec4 <HAL_GPIO_WritePin>
 8000824:	bd10      	pop	{r4, pc}
 8000826:	2201      	movs	r2, #1
 8000828:	0011      	movs	r1, r2
 800082a:	e7e9      	b.n	8000800 <display7SEG+0x18>
 800082c:	2200      	movs	r2, #0
 800082e:	2101      	movs	r1, #1
 8000830:	481a      	ldr	r0, [pc, #104]	; (800089c <display7SEG+0xb4>)
 8000832:	f000 fb47 	bl	8000ec4 <HAL_GPIO_WritePin>
 8000836:	2201      	movs	r2, #1
 8000838:	e7e6      	b.n	8000808 <display7SEG+0x20>
 800083a:	2201      	movs	r2, #1
 800083c:	0011      	movs	r1, r2
 800083e:	e7f7      	b.n	8000830 <display7SEG+0x48>
 8000840:	2200      	movs	r2, #0
 8000842:	2101      	movs	r1, #1
 8000844:	4815      	ldr	r0, [pc, #84]	; (800089c <display7SEG+0xb4>)
 8000846:	f000 fb3d 	bl	8000ec4 <HAL_GPIO_WritePin>
 800084a:	2200      	movs	r2, #0
 800084c:	2180      	movs	r1, #128	; 0x80
 800084e:	4814      	ldr	r0, [pc, #80]	; (80008a0 <display7SEG+0xb8>)
 8000850:	f000 fb38 	bl	8000ec4 <HAL_GPIO_WritePin>
 8000854:	2201      	movs	r2, #1
 8000856:	e7dc      	b.n	8000812 <display7SEG+0x2a>
 8000858:	2201      	movs	r2, #1
 800085a:	0011      	movs	r1, r2
 800085c:	e7f2      	b.n	8000844 <display7SEG+0x5c>
 800085e:	2200      	movs	r2, #0
 8000860:	2101      	movs	r1, #1
 8000862:	480e      	ldr	r0, [pc, #56]	; (800089c <display7SEG+0xb4>)
 8000864:	f000 fb2e 	bl	8000ec4 <HAL_GPIO_WritePin>
 8000868:	2201      	movs	r2, #1
 800086a:	e7ef      	b.n	800084c <display7SEG+0x64>
 800086c:	2201      	movs	r2, #1
 800086e:	0011      	movs	r1, r2
 8000870:	e7f7      	b.n	8000862 <display7SEG+0x7a>
 8000872:	2200      	movs	r2, #0
 8000874:	2101      	movs	r1, #1
 8000876:	4809      	ldr	r0, [pc, #36]	; (800089c <display7SEG+0xb4>)
 8000878:	f000 fb24 	bl	8000ec4 <HAL_GPIO_WritePin>
 800087c:	2200      	movs	r2, #0
 800087e:	2180      	movs	r1, #128	; 0x80
 8000880:	4807      	ldr	r0, [pc, #28]	; (80008a0 <display7SEG+0xb8>)
 8000882:	f000 fb1f 	bl	8000ec4 <HAL_GPIO_WritePin>
 8000886:	2200      	movs	r2, #0
 8000888:	2140      	movs	r1, #64	; 0x40
 800088a:	4805      	ldr	r0, [pc, #20]	; (80008a0 <display7SEG+0xb8>)
 800088c:	f000 fb1a 	bl	8000ec4 <HAL_GPIO_WritePin>
 8000890:	2201      	movs	r2, #1
 8000892:	e7c3      	b.n	800081c <display7SEG+0x34>
 8000894:	2201      	movs	r2, #1
 8000896:	0011      	movs	r1, r2
 8000898:	e7ed      	b.n	8000876 <display7SEG+0x8e>
 800089a:	46c0      	nop			; (mov r8, r8)
 800089c:	48001400 	.word	0x48001400
 80008a0:	48000400 	.word	0x48000400

080008a4 <Scan7SEG>:
 80008a4:	b570      	push	{r4, r5, r6, lr}
 80008a6:	f7ff ff81 	bl	80007ac <Diable_Led>
 80008aa:	4c17      	ldr	r4, [pc, #92]	; (8000908 <Scan7SEG+0x64>)
 80008ac:	6820      	ldr	r0, [r4, #0]
 80008ae:	2803      	cmp	r0, #3
 80008b0:	d80d      	bhi.n	80008ce <Scan7SEG+0x2a>
 80008b2:	2201      	movs	r2, #1
 80008b4:	4d15      	ldr	r5, [pc, #84]	; (800090c <Scan7SEG+0x68>)
 80008b6:	f7ff fc27 	bl	8000108 <__gnu_thumb1_case_uqi>
 80008ba:	1002      	.short	0x1002
 80008bc:	1c16      	.short	0x1c16
 80008be:	2090      	movs	r0, #144	; 0x90
 80008c0:	0011      	movs	r1, r2
 80008c2:	05c0      	lsls	r0, r0, #23
 80008c4:	f000 fafe 	bl	8000ec4 <HAL_GPIO_WritePin>
 80008c8:	6828      	ldr	r0, [r5, #0]
 80008ca:	f7ff ff8d 	bl	80007e8 <display7SEG>
 80008ce:	6823      	ldr	r3, [r4, #0]
 80008d0:	3301      	adds	r3, #1
 80008d2:	2b03      	cmp	r3, #3
 80008d4:	dc15      	bgt.n	8000902 <Scan7SEG+0x5e>
 80008d6:	6023      	str	r3, [r4, #0]
 80008d8:	bd70      	pop	{r4, r5, r6, pc}
 80008da:	480d      	ldr	r0, [pc, #52]	; (8000910 <Scan7SEG+0x6c>)
 80008dc:	2102      	movs	r1, #2
 80008de:	f000 faf1 	bl	8000ec4 <HAL_GPIO_WritePin>
 80008e2:	6868      	ldr	r0, [r5, #4]
 80008e4:	e7f1      	b.n	80008ca <Scan7SEG+0x26>
 80008e6:	480b      	ldr	r0, [pc, #44]	; (8000914 <Scan7SEG+0x70>)
 80008e8:	2108      	movs	r1, #8
 80008ea:	f000 faeb 	bl	8000ec4 <HAL_GPIO_WritePin>
 80008ee:	68a8      	ldr	r0, [r5, #8]
 80008f0:	e7eb      	b.n	80008ca <Scan7SEG+0x26>
 80008f2:	2180      	movs	r1, #128	; 0x80
 80008f4:	2090      	movs	r0, #144	; 0x90
 80008f6:	0109      	lsls	r1, r1, #4
 80008f8:	05c0      	lsls	r0, r0, #23
 80008fa:	f000 fae3 	bl	8000ec4 <HAL_GPIO_WritePin>
 80008fe:	68e8      	ldr	r0, [r5, #12]
 8000900:	e7e3      	b.n	80008ca <Scan7SEG+0x26>
 8000902:	2300      	movs	r3, #0
 8000904:	e7e7      	b.n	80008d6 <Scan7SEG+0x32>
 8000906:	46c0      	nop			; (mov r8, r8)
 8000908:	20000068 	.word	0x20000068
 800090c:	20000058 	.word	0x20000058
 8000910:	48001400 	.word	0x48001400
 8000914:	48000400 	.word	0x48000400

08000918 <updateClockBuffer>:
 8000918:	b570      	push	{r4, r5, r6, lr}
 800091a:	000d      	movs	r5, r1
 800091c:	210a      	movs	r1, #10
 800091e:	0006      	movs	r6, r0
 8000920:	f7ff fc90 	bl	8000244 <__divsi3>
 8000924:	4c08      	ldr	r4, [pc, #32]	; (8000948 <updateClockBuffer+0x30>)
 8000926:	210a      	movs	r1, #10
 8000928:	6020      	str	r0, [r4, #0]
 800092a:	0030      	movs	r0, r6
 800092c:	f7ff fd70 	bl	8000410 <__aeabi_idivmod>
 8000930:	0028      	movs	r0, r5
 8000932:	6061      	str	r1, [r4, #4]
 8000934:	210a      	movs	r1, #10
 8000936:	f7ff fc85 	bl	8000244 <__divsi3>
 800093a:	210a      	movs	r1, #10
 800093c:	60a0      	str	r0, [r4, #8]
 800093e:	0028      	movs	r0, r5
 8000940:	f7ff fd66 	bl	8000410 <__aeabi_idivmod>
 8000944:	60e1      	str	r1, [r4, #12]
 8000946:	bd70      	pop	{r4, r5, r6, pc}
 8000948:	20000058 	.word	0x20000058

0800094c <SystemClock_Config>:
 800094c:	b510      	push	{r4, lr}
 800094e:	2410      	movs	r4, #16
 8000950:	b090      	sub	sp, #64	; 0x40
 8000952:	222c      	movs	r2, #44	; 0x2c
 8000954:	2100      	movs	r1, #0
 8000956:	a805      	add	r0, sp, #20
 8000958:	f000 ffb8 	bl	80018cc <memset>
 800095c:	2100      	movs	r1, #0
 800095e:	0022      	movs	r2, r4
 8000960:	4668      	mov	r0, sp
 8000962:	f000 ffb3 	bl	80018cc <memset>
 8000966:	2302      	movs	r3, #2
 8000968:	a804      	add	r0, sp, #16
 800096a:	9304      	str	r3, [sp, #16]
 800096c:	3b01      	subs	r3, #1
 800096e:	9307      	str	r3, [sp, #28]
 8000970:	9408      	str	r4, [sp, #32]
 8000972:	f000 fac1 	bl	8000ef8 <HAL_RCC_OscConfig>
 8000976:	1e01      	subs	r1, r0, #0
 8000978:	d001      	beq.n	800097e <SystemClock_Config+0x32>
 800097a:	b672      	cpsid	i
 800097c:	e7fe      	b.n	800097c <SystemClock_Config+0x30>
 800097e:	2307      	movs	r3, #7
 8000980:	9001      	str	r0, [sp, #4]
 8000982:	9002      	str	r0, [sp, #8]
 8000984:	9003      	str	r0, [sp, #12]
 8000986:	4668      	mov	r0, sp
 8000988:	9300      	str	r3, [sp, #0]
 800098a:	f000 fcdb 	bl	8001344 <HAL_RCC_ClockConfig>
 800098e:	2800      	cmp	r0, #0
 8000990:	d001      	beq.n	8000996 <SystemClock_Config+0x4a>
 8000992:	b672      	cpsid	i
 8000994:	e7fe      	b.n	8000994 <SystemClock_Config+0x48>
 8000996:	b010      	add	sp, #64	; 0x40
 8000998:	bd10      	pop	{r4, pc}
	...

0800099c <main>:
 800099c:	b5f0      	push	{r4, r5, r6, r7, lr}
 800099e:	b08b      	sub	sp, #44	; 0x2c
 80009a0:	f000 f968 	bl	8000c74 <HAL_Init>
 80009a4:	f7ff ffd2 	bl	800094c <SystemClock_Config>
 80009a8:	2214      	movs	r2, #20
 80009aa:	2100      	movs	r1, #0
 80009ac:	a805      	add	r0, sp, #20
 80009ae:	f000 ff8d 	bl	80018cc <memset>
 80009b2:	2080      	movs	r0, #128	; 0x80
 80009b4:	2680      	movs	r6, #128	; 0x80
 80009b6:	4b48      	ldr	r3, [pc, #288]	; (8000ad8 <main+0x13c>)
 80009b8:	03c0      	lsls	r0, r0, #15
 80009ba:	6959      	ldr	r1, [r3, #20]
 80009bc:	02b6      	lsls	r6, r6, #10
 80009be:	4301      	orrs	r1, r0
 80009c0:	6159      	str	r1, [r3, #20]
 80009c2:	2180      	movs	r1, #128	; 0x80
 80009c4:	695a      	ldr	r2, [r3, #20]
 80009c6:	02c9      	lsls	r1, r1, #11
 80009c8:	4002      	ands	r2, r0
 80009ca:	9200      	str	r2, [sp, #0]
 80009cc:	9a00      	ldr	r2, [sp, #0]
 80009ce:	695a      	ldr	r2, [r3, #20]
 80009d0:	4842      	ldr	r0, [pc, #264]	; (8000adc <main+0x140>)
 80009d2:	4332      	orrs	r2, r6
 80009d4:	615a      	str	r2, [r3, #20]
 80009d6:	695a      	ldr	r2, [r3, #20]
 80009d8:	4f41      	ldr	r7, [pc, #260]	; (8000ae0 <main+0x144>)
 80009da:	4032      	ands	r2, r6
 80009dc:	9201      	str	r2, [sp, #4]
 80009de:	9a01      	ldr	r2, [sp, #4]
 80009e0:	695a      	ldr	r2, [r3, #20]
 80009e2:	2400      	movs	r4, #0
 80009e4:	430a      	orrs	r2, r1
 80009e6:	615a      	str	r2, [r3, #20]
 80009e8:	695b      	ldr	r3, [r3, #20]
 80009ea:	2200      	movs	r2, #0
 80009ec:	400b      	ands	r3, r1
 80009ee:	9302      	str	r3, [sp, #8]
 80009f0:	2103      	movs	r1, #3
 80009f2:	9b02      	ldr	r3, [sp, #8]
 80009f4:	f000 fa66 	bl	8000ec4 <HAL_GPIO_WritePin>
 80009f8:	2090      	movs	r0, #144	; 0x90
 80009fa:	2200      	movs	r2, #0
 80009fc:	0039      	movs	r1, r7
 80009fe:	05c0      	lsls	r0, r0, #23
 8000a00:	f000 fa60 	bl	8000ec4 <HAL_GPIO_WritePin>
 8000a04:	2200      	movs	r2, #0
 8000a06:	21fa      	movs	r1, #250	; 0xfa
 8000a08:	4836      	ldr	r0, [pc, #216]	; (8000ae4 <main+0x148>)
 8000a0a:	f000 fa5b 	bl	8000ec4 <HAL_GPIO_WritePin>
 8000a0e:	2501      	movs	r5, #1
 8000a10:	2303      	movs	r3, #3
 8000a12:	4832      	ldr	r0, [pc, #200]	; (8000adc <main+0x140>)
 8000a14:	a905      	add	r1, sp, #20
 8000a16:	9305      	str	r3, [sp, #20]
 8000a18:	9506      	str	r5, [sp, #24]
 8000a1a:	9407      	str	r4, [sp, #28]
 8000a1c:	9408      	str	r4, [sp, #32]
 8000a1e:	f000 f99b 	bl	8000d58 <HAL_GPIO_Init>
 8000a22:	2090      	movs	r0, #144	; 0x90
 8000a24:	a905      	add	r1, sp, #20
 8000a26:	05c0      	lsls	r0, r0, #23
 8000a28:	9506      	str	r5, [sp, #24]
 8000a2a:	9705      	str	r7, [sp, #20]
 8000a2c:	9407      	str	r4, [sp, #28]
 8000a2e:	9408      	str	r4, [sp, #32]
 8000a30:	f000 f992 	bl	8000d58 <HAL_GPIO_Init>
 8000a34:	2090      	movs	r0, #144	; 0x90
 8000a36:	238a      	movs	r3, #138	; 0x8a
 8000a38:	a905      	add	r1, sp, #20
 8000a3a:	05c0      	lsls	r0, r0, #23
 8000a3c:	9305      	str	r3, [sp, #20]
 8000a3e:	9507      	str	r5, [sp, #28]
 8000a40:	9406      	str	r4, [sp, #24]
 8000a42:	f000 f989 	bl	8000d58 <HAL_GPIO_Init>
 8000a46:	23fa      	movs	r3, #250	; 0xfa
 8000a48:	a905      	add	r1, sp, #20
 8000a4a:	4826      	ldr	r0, [pc, #152]	; (8000ae4 <main+0x148>)
 8000a4c:	9305      	str	r3, [sp, #20]
 8000a4e:	9506      	str	r5, [sp, #24]
 8000a50:	9407      	str	r4, [sp, #28]
 8000a52:	9408      	str	r4, [sp, #32]
 8000a54:	f000 f980 	bl	8000d58 <HAL_GPIO_Init>
 8000a58:	2080      	movs	r0, #128	; 0x80
 8000a5a:	0240      	lsls	r0, r0, #9
 8000a5c:	f000 fa38 	bl	8000ed0 <HAL_I2CEx_EnableFastModePlus>
 8000a60:	0030      	movs	r0, r6
 8000a62:	f000 fa35 	bl	8000ed0 <HAL_I2CEx_EnableFastModePlus>
 8000a66:	2210      	movs	r2, #16
 8000a68:	0021      	movs	r1, r4
 8000a6a:	a805      	add	r0, sp, #20
 8000a6c:	f000 ff2e 	bl	80018cc <memset>
 8000a70:	2208      	movs	r2, #8
 8000a72:	0021      	movs	r1, r4
 8000a74:	a803      	add	r0, sp, #12
 8000a76:	f000 ff29 	bl	80018cc <memset>
 8000a7a:	2380      	movs	r3, #128	; 0x80
 8000a7c:	4d1a      	ldr	r5, [pc, #104]	; (8000ae8 <main+0x14c>)
 8000a7e:	05db      	lsls	r3, r3, #23
 8000a80:	602b      	str	r3, [r5, #0]
 8000a82:	4b1a      	ldr	r3, [pc, #104]	; (8000aec <main+0x150>)
 8000a84:	0028      	movs	r0, r5
 8000a86:	606b      	str	r3, [r5, #4]
 8000a88:	2309      	movs	r3, #9
 8000a8a:	60ac      	str	r4, [r5, #8]
 8000a8c:	60eb      	str	r3, [r5, #12]
 8000a8e:	612c      	str	r4, [r5, #16]
 8000a90:	61ac      	str	r4, [r5, #24]
 8000a92:	f000 fdf5 	bl	8001680 <HAL_TIM_Base_Init>
 8000a96:	42a0      	cmp	r0, r4
 8000a98:	d001      	beq.n	8000a9e <main+0x102>
 8000a9a:	b672      	cpsid	i
 8000a9c:	e7fe      	b.n	8000a9c <main+0x100>
 8000a9e:	2380      	movs	r3, #128	; 0x80
 8000aa0:	0028      	movs	r0, r5
 8000aa2:	015b      	lsls	r3, r3, #5
 8000aa4:	a905      	add	r1, sp, #20
 8000aa6:	9305      	str	r3, [sp, #20]
 8000aa8:	f000 fe1e 	bl	80016e8 <HAL_TIM_ConfigClockSource>
 8000aac:	2800      	cmp	r0, #0
 8000aae:	d001      	beq.n	8000ab4 <main+0x118>
 8000ab0:	b672      	cpsid	i
 8000ab2:	e7fe      	b.n	8000ab2 <main+0x116>
 8000ab4:	9003      	str	r0, [sp, #12]
 8000ab6:	9004      	str	r0, [sp, #16]
 8000ab8:	a903      	add	r1, sp, #12
 8000aba:	0028      	movs	r0, r5
 8000abc:	f000 feb4 	bl	8001828 <HAL_TIMEx_MasterConfigSynchronization>
 8000ac0:	2800      	cmp	r0, #0
 8000ac2:	d001      	beq.n	8000ac8 <main+0x12c>
 8000ac4:	b672      	cpsid	i
 8000ac6:	e7fe      	b.n	8000ac6 <main+0x12a>
 8000ac8:	0028      	movs	r0, r5
 8000aca:	f000 fcbf 	bl	800144c <HAL_TIM_Base_Start_IT>
 8000ace:	f7ff fce9 	bl	80004a4 <fsm_auto_run>
 8000ad2:	f7ff fe0f 	bl	80006f4 <fsm_manual>
 8000ad6:	e7fa      	b.n	8000ace <main+0x132>
 8000ad8:	40021000 	.word	0x40021000
 8000adc:	48001400 	.word	0x48001400
 8000ae0:	00001915 	.word	0x00001915
 8000ae4:	48000400 	.word	0x48000400
 8000ae8:	2000007c 	.word	0x2000007c
 8000aec:	00001f3f 	.word	0x00001f3f

08000af0 <HAL_MspInit>:
 8000af0:	2001      	movs	r0, #1
 8000af2:	4b0a      	ldr	r3, [pc, #40]	; (8000b1c <HAL_MspInit+0x2c>)
 8000af4:	b082      	sub	sp, #8
 8000af6:	6999      	ldr	r1, [r3, #24]
 8000af8:	4301      	orrs	r1, r0
 8000afa:	6199      	str	r1, [r3, #24]
 8000afc:	2180      	movs	r1, #128	; 0x80
 8000afe:	699a      	ldr	r2, [r3, #24]
 8000b00:	0549      	lsls	r1, r1, #21
 8000b02:	4002      	ands	r2, r0
 8000b04:	9200      	str	r2, [sp, #0]
 8000b06:	9a00      	ldr	r2, [sp, #0]
 8000b08:	69da      	ldr	r2, [r3, #28]
 8000b0a:	430a      	orrs	r2, r1
 8000b0c:	61da      	str	r2, [r3, #28]
 8000b0e:	69db      	ldr	r3, [r3, #28]
 8000b10:	400b      	ands	r3, r1
 8000b12:	9301      	str	r3, [sp, #4]
 8000b14:	9b01      	ldr	r3, [sp, #4]
 8000b16:	b002      	add	sp, #8
 8000b18:	4770      	bx	lr
 8000b1a:	46c0      	nop			; (mov r8, r8)
 8000b1c:	40021000 	.word	0x40021000

08000b20 <HAL_TIM_Base_MspInit>:
 8000b20:	2380      	movs	r3, #128	; 0x80
 8000b22:	b507      	push	{r0, r1, r2, lr}
 8000b24:	6802      	ldr	r2, [r0, #0]
 8000b26:	05db      	lsls	r3, r3, #23
 8000b28:	429a      	cmp	r2, r3
 8000b2a:	d110      	bne.n	8000b4e <HAL_TIM_Base_MspInit+0x2e>
 8000b2c:	2001      	movs	r0, #1
 8000b2e:	4a08      	ldr	r2, [pc, #32]	; (8000b50 <HAL_TIM_Base_MspInit+0x30>)
 8000b30:	69d1      	ldr	r1, [r2, #28]
 8000b32:	4301      	orrs	r1, r0
 8000b34:	61d1      	str	r1, [r2, #28]
 8000b36:	69d3      	ldr	r3, [r2, #28]
 8000b38:	2200      	movs	r2, #0
 8000b3a:	4003      	ands	r3, r0
 8000b3c:	9301      	str	r3, [sp, #4]
 8000b3e:	300e      	adds	r0, #14
 8000b40:	0011      	movs	r1, r2
 8000b42:	9b01      	ldr	r3, [sp, #4]
 8000b44:	f000 f8b8 	bl	8000cb8 <HAL_NVIC_SetPriority>
 8000b48:	200f      	movs	r0, #15
 8000b4a:	f000 f8df 	bl	8000d0c <HAL_NVIC_EnableIRQ>
 8000b4e:	bd07      	pop	{r0, r1, r2, pc}
 8000b50:	40021000 	.word	0x40021000

08000b54 <NMI_Handler>:
 8000b54:	e7fe      	b.n	8000b54 <NMI_Handler>

08000b56 <HardFault_Handler>:
 8000b56:	e7fe      	b.n	8000b56 <HardFault_Handler>

08000b58 <SVC_Handler>:
 8000b58:	4770      	bx	lr

08000b5a <PendSV_Handler>:
 8000b5a:	4770      	bx	lr

08000b5c <SysTick_Handler>:
 8000b5c:	b510      	push	{r4, lr}
 8000b5e:	f000 f899 	bl	8000c94 <HAL_IncTick>
 8000b62:	bd10      	pop	{r4, pc}

08000b64 <TIM2_IRQHandler>:
 8000b64:	b510      	push	{r4, lr}
 8000b66:	4802      	ldr	r0, [pc, #8]	; (8000b70 <TIM2_IRQHandler+0xc>)
 8000b68:	f000 fca0 	bl	80014ac <HAL_TIM_IRQHandler>
 8000b6c:	bd10      	pop	{r4, pc}
 8000b6e:	46c0      	nop			; (mov r8, r8)
 8000b70:	2000007c 	.word	0x2000007c

08000b74 <SystemInit>:
 8000b74:	4770      	bx	lr
	...

08000b78 <setTimer>:
 8000b78:	000b      	movs	r3, r1
 8000b7a:	b510      	push	{r4, lr}
 8000b7c:	210a      	movs	r1, #10
 8000b7e:	0084      	lsls	r4, r0, #2
 8000b80:	0018      	movs	r0, r3
 8000b82:	f7ff fb5f 	bl	8000244 <__divsi3>
 8000b86:	2200      	movs	r2, #0
 8000b88:	4b02      	ldr	r3, [pc, #8]	; (8000b94 <setTimer+0x1c>)
 8000b8a:	5118      	str	r0, [r3, r4]
 8000b8c:	4b02      	ldr	r3, [pc, #8]	; (8000b98 <setTimer+0x20>)
 8000b8e:	50e2      	str	r2, [r4, r3]
 8000b90:	bd10      	pop	{r4, pc}
 8000b92:	46c0      	nop			; (mov r8, r8)
 8000b94:	2000006c 	.word	0x2000006c
 8000b98:	2000000c 	.word	0x2000000c

08000b9c <timer_run>:
 8000b9c:	b510      	push	{r4, lr}
 8000b9e:	2200      	movs	r2, #0
 8000ba0:	2401      	movs	r4, #1
 8000ba2:	4908      	ldr	r1, [pc, #32]	; (8000bc4 <timer_run+0x28>)
 8000ba4:	4808      	ldr	r0, [pc, #32]	; (8000bc8 <timer_run+0x2c>)
 8000ba6:	680b      	ldr	r3, [r1, #0]
 8000ba8:	2b00      	cmp	r3, #0
 8000baa:	dd05      	ble.n	8000bb8 <timer_run+0x1c>
 8000bac:	3b01      	subs	r3, #1
 8000bae:	600b      	str	r3, [r1, #0]
 8000bb0:	2b00      	cmp	r3, #0
 8000bb2:	d101      	bne.n	8000bb8 <timer_run+0x1c>
 8000bb4:	0093      	lsls	r3, r2, #2
 8000bb6:	501c      	str	r4, [r3, r0]
 8000bb8:	3201      	adds	r2, #1
 8000bba:	3104      	adds	r1, #4
 8000bbc:	2a04      	cmp	r2, #4
 8000bbe:	d1f2      	bne.n	8000ba6 <timer_run+0xa>
 8000bc0:	bd10      	pop	{r4, pc}
 8000bc2:	46c0      	nop			; (mov r8, r8)
 8000bc4:	2000006c 	.word	0x2000006c
 8000bc8:	2000000c 	.word	0x2000000c

08000bcc <HAL_TIM_PeriodElapsedCallback>:
 8000bcc:	b510      	push	{r4, lr}
 8000bce:	f7ff fc25 	bl	800041c <getKeyinput>
 8000bd2:	f7ff ffe3 	bl	8000b9c <timer_run>
 8000bd6:	bd10      	pop	{r4, pc}

08000bd8 <Reset_Handler>:
 8000bd8:	480d      	ldr	r0, [pc, #52]	; (8000c10 <LoopForever+0x2>)
 8000bda:	4685      	mov	sp, r0
 8000bdc:	f7ff ffca 	bl	8000b74 <SystemInit>
 8000be0:	480c      	ldr	r0, [pc, #48]	; (8000c14 <LoopForever+0x6>)
 8000be2:	490d      	ldr	r1, [pc, #52]	; (8000c18 <LoopForever+0xa>)
 8000be4:	4a0d      	ldr	r2, [pc, #52]	; (8000c1c <LoopForever+0xe>)
 8000be6:	2300      	movs	r3, #0
 8000be8:	e002      	b.n	8000bf0 <LoopCopyDataInit>

08000bea <CopyDataInit>:
 8000bea:	58d4      	ldr	r4, [r2, r3]
 8000bec:	50c4      	str	r4, [r0, r3]
 8000bee:	3304      	adds	r3, #4

08000bf0 <LoopCopyDataInit>:
 8000bf0:	18c4      	adds	r4, r0, r3
 8000bf2:	428c      	cmp	r4, r1
 8000bf4:	d3f9      	bcc.n	8000bea <CopyDataInit>
 8000bf6:	4a0a      	ldr	r2, [pc, #40]	; (8000c20 <LoopForever+0x12>)
 8000bf8:	4c0a      	ldr	r4, [pc, #40]	; (8000c24 <LoopForever+0x16>)
 8000bfa:	2300      	movs	r3, #0
 8000bfc:	e001      	b.n	8000c02 <LoopFillZerobss>

08000bfe <FillZerobss>:
 8000bfe:	6013      	str	r3, [r2, #0]
 8000c00:	3204      	adds	r2, #4

08000c02 <LoopFillZerobss>:
 8000c02:	42a2      	cmp	r2, r4
 8000c04:	d3fb      	bcc.n	8000bfe <FillZerobss>
 8000c06:	f000 fe3d 	bl	8001884 <__libc_init_array>
 8000c0a:	f7ff fec7 	bl	800099c <main>

08000c0e <LoopForever>:
 8000c0e:	e7fe      	b.n	8000c0e <LoopForever>
 8000c10:	20001000 	.word	0x20001000
 8000c14:	20000000 	.word	0x20000000
 8000c18:	20000024 	.word	0x20000024
 8000c1c:	0800192c 	.word	0x0800192c
 8000c20:	20000024 	.word	0x20000024
 8000c24:	200000c8 	.word	0x200000c8

08000c28 <ADC1_IRQHandler>:
 8000c28:	e7fe      	b.n	8000c28 <ADC1_IRQHandler>
	...

08000c2c <HAL_InitTick>:
 8000c2c:	b570      	push	{r4, r5, r6, lr}
 8000c2e:	0005      	movs	r5, r0
 8000c30:	20fa      	movs	r0, #250	; 0xfa
 8000c32:	4b0d      	ldr	r3, [pc, #52]	; (8000c68 <HAL_InitTick+0x3c>)
 8000c34:	0080      	lsls	r0, r0, #2
 8000c36:	7819      	ldrb	r1, [r3, #0]
 8000c38:	f7ff fa7a 	bl	8000130 <__udivsi3>
 8000c3c:	4b0b      	ldr	r3, [pc, #44]	; (8000c6c <HAL_InitTick+0x40>)
 8000c3e:	0001      	movs	r1, r0
 8000c40:	6818      	ldr	r0, [r3, #0]
 8000c42:	f7ff fa75 	bl	8000130 <__udivsi3>
 8000c46:	f000 f86d 	bl	8000d24 <HAL_SYSTICK_Config>
 8000c4a:	0004      	movs	r4, r0
 8000c4c:	2001      	movs	r0, #1
 8000c4e:	2c00      	cmp	r4, #0
 8000c50:	d109      	bne.n	8000c66 <HAL_InitTick+0x3a>
 8000c52:	2d03      	cmp	r5, #3
 8000c54:	d807      	bhi.n	8000c66 <HAL_InitTick+0x3a>
 8000c56:	3802      	subs	r0, #2
 8000c58:	0022      	movs	r2, r4
 8000c5a:	0029      	movs	r1, r5
 8000c5c:	f000 f82c 	bl	8000cb8 <HAL_NVIC_SetPriority>
 8000c60:	0020      	movs	r0, r4
 8000c62:	4b03      	ldr	r3, [pc, #12]	; (8000c70 <HAL_InitTick+0x44>)
 8000c64:	601d      	str	r5, [r3, #0]
 8000c66:	bd70      	pop	{r4, r5, r6, pc}
 8000c68:	2000001c 	.word	0x2000001c
 8000c6c:	20000008 	.word	0x20000008
 8000c70:	20000020 	.word	0x20000020

08000c74 <HAL_Init>:
 8000c74:	2310      	movs	r3, #16
 8000c76:	4a06      	ldr	r2, [pc, #24]	; (8000c90 <HAL_Init+0x1c>)
 8000c78:	b510      	push	{r4, lr}
 8000c7a:	6811      	ldr	r1, [r2, #0]
 8000c7c:	2000      	movs	r0, #0
 8000c7e:	430b      	orrs	r3, r1
 8000c80:	6013      	str	r3, [r2, #0]
 8000c82:	f7ff ffd3 	bl	8000c2c <HAL_InitTick>
 8000c86:	f7ff ff33 	bl	8000af0 <HAL_MspInit>
 8000c8a:	2000      	movs	r0, #0
 8000c8c:	bd10      	pop	{r4, pc}
 8000c8e:	46c0      	nop			; (mov r8, r8)
 8000c90:	40022000 	.word	0x40022000

08000c94 <HAL_IncTick>:
 8000c94:	4a03      	ldr	r2, [pc, #12]	; (8000ca4 <HAL_IncTick+0x10>)
 8000c96:	4b04      	ldr	r3, [pc, #16]	; (8000ca8 <HAL_IncTick+0x14>)
 8000c98:	6811      	ldr	r1, [r2, #0]
 8000c9a:	781b      	ldrb	r3, [r3, #0]
 8000c9c:	185b      	adds	r3, r3, r1
 8000c9e:	6013      	str	r3, [r2, #0]
 8000ca0:	4770      	bx	lr
 8000ca2:	46c0      	nop			; (mov r8, r8)
 8000ca4:	200000c4 	.word	0x200000c4
 8000ca8:	2000001c 	.word	0x2000001c

08000cac <HAL_GetTick>:
 8000cac:	4b01      	ldr	r3, [pc, #4]	; (8000cb4 <HAL_GetTick+0x8>)
 8000cae:	6818      	ldr	r0, [r3, #0]
 8000cb0:	4770      	bx	lr
 8000cb2:	46c0      	nop			; (mov r8, r8)
 8000cb4:	200000c4 	.word	0x200000c4

08000cb8 <HAL_NVIC_SetPriority>:
 8000cb8:	b530      	push	{r4, r5, lr}
 8000cba:	25ff      	movs	r5, #255	; 0xff
 8000cbc:	2403      	movs	r4, #3
 8000cbe:	002a      	movs	r2, r5
 8000cc0:	4004      	ands	r4, r0
 8000cc2:	00e4      	lsls	r4, r4, #3
 8000cc4:	40a2      	lsls	r2, r4
 8000cc6:	0189      	lsls	r1, r1, #6
 8000cc8:	4029      	ands	r1, r5
 8000cca:	43d2      	mvns	r2, r2
 8000ccc:	40a1      	lsls	r1, r4
 8000cce:	b2c3      	uxtb	r3, r0
 8000cd0:	2800      	cmp	r0, #0
 8000cd2:	db0a      	blt.n	8000cea <HAL_NVIC_SetPriority+0x32>
 8000cd4:	24c0      	movs	r4, #192	; 0xc0
 8000cd6:	4b0b      	ldr	r3, [pc, #44]	; (8000d04 <HAL_NVIC_SetPriority+0x4c>)
 8000cd8:	0880      	lsrs	r0, r0, #2
 8000cda:	0080      	lsls	r0, r0, #2
 8000cdc:	18c0      	adds	r0, r0, r3
 8000cde:	00a4      	lsls	r4, r4, #2
 8000ce0:	5903      	ldr	r3, [r0, r4]
 8000ce2:	401a      	ands	r2, r3
 8000ce4:	4311      	orrs	r1, r2
 8000ce6:	5101      	str	r1, [r0, r4]
 8000ce8:	bd30      	pop	{r4, r5, pc}
 8000cea:	200f      	movs	r0, #15
 8000cec:	4003      	ands	r3, r0
 8000cee:	3b08      	subs	r3, #8
 8000cf0:	4805      	ldr	r0, [pc, #20]	; (8000d08 <HAL_NVIC_SetPriority+0x50>)
 8000cf2:	089b      	lsrs	r3, r3, #2
 8000cf4:	009b      	lsls	r3, r3, #2
 8000cf6:	181b      	adds	r3, r3, r0
 8000cf8:	69d8      	ldr	r0, [r3, #28]
 8000cfa:	4002      	ands	r2, r0
 8000cfc:	4311      	orrs	r1, r2
 8000cfe:	61d9      	str	r1, [r3, #28]
 8000d00:	e7f2      	b.n	8000ce8 <HAL_NVIC_SetPriority+0x30>
 8000d02:	46c0      	nop			; (mov r8, r8)
 8000d04:	e000e100 	.word	0xe000e100
 8000d08:	e000ed00 	.word	0xe000ed00

08000d0c <HAL_NVIC_EnableIRQ>:
 8000d0c:	2800      	cmp	r0, #0
 8000d0e:	db05      	blt.n	8000d1c <HAL_NVIC_EnableIRQ+0x10>
 8000d10:	231f      	movs	r3, #31
 8000d12:	4018      	ands	r0, r3
 8000d14:	3b1e      	subs	r3, #30
 8000d16:	4083      	lsls	r3, r0
 8000d18:	4a01      	ldr	r2, [pc, #4]	; (8000d20 <HAL_NVIC_EnableIRQ+0x14>)
 8000d1a:	6013      	str	r3, [r2, #0]
 8000d1c:	4770      	bx	lr
 8000d1e:	46c0      	nop			; (mov r8, r8)
 8000d20:	e000e100 	.word	0xe000e100

08000d24 <HAL_SYSTICK_Config>:
 8000d24:	2280      	movs	r2, #128	; 0x80
 8000d26:	1e43      	subs	r3, r0, #1
 8000d28:	0452      	lsls	r2, r2, #17
 8000d2a:	2001      	movs	r0, #1
 8000d2c:	4293      	cmp	r3, r2
 8000d2e:	d20d      	bcs.n	8000d4c <HAL_SYSTICK_Config+0x28>
 8000d30:	21c0      	movs	r1, #192	; 0xc0
 8000d32:	4a07      	ldr	r2, [pc, #28]	; (8000d50 <HAL_SYSTICK_Config+0x2c>)
 8000d34:	4807      	ldr	r0, [pc, #28]	; (8000d54 <HAL_SYSTICK_Config+0x30>)
 8000d36:	6053      	str	r3, [r2, #4]
 8000d38:	6a03      	ldr	r3, [r0, #32]
 8000d3a:	0609      	lsls	r1, r1, #24
 8000d3c:	021b      	lsls	r3, r3, #8
 8000d3e:	0a1b      	lsrs	r3, r3, #8
 8000d40:	430b      	orrs	r3, r1
 8000d42:	6203      	str	r3, [r0, #32]
 8000d44:	2000      	movs	r0, #0
 8000d46:	2307      	movs	r3, #7
 8000d48:	6090      	str	r0, [r2, #8]
 8000d4a:	6013      	str	r3, [r2, #0]
 8000d4c:	4770      	bx	lr
 8000d4e:	46c0      	nop			; (mov r8, r8)
 8000d50:	e000e010 	.word	0xe000e010
 8000d54:	e000ed00 	.word	0xe000ed00

08000d58 <HAL_GPIO_Init>:
 8000d58:	2300      	movs	r3, #0
 8000d5a:	b5f0      	push	{r4, r5, r6, r7, lr}
 8000d5c:	b087      	sub	sp, #28
 8000d5e:	680a      	ldr	r2, [r1, #0]
 8000d60:	0014      	movs	r4, r2
 8000d62:	40dc      	lsrs	r4, r3
 8000d64:	d101      	bne.n	8000d6a <HAL_GPIO_Init+0x12>
 8000d66:	b007      	add	sp, #28
 8000d68:	bdf0      	pop	{r4, r5, r6, r7, pc}
 8000d6a:	2501      	movs	r5, #1
 8000d6c:	0014      	movs	r4, r2
 8000d6e:	409d      	lsls	r5, r3
 8000d70:	402c      	ands	r4, r5
 8000d72:	9401      	str	r4, [sp, #4]
 8000d74:	422a      	tst	r2, r5
 8000d76:	d100      	bne.n	8000d7a <HAL_GPIO_Init+0x22>
 8000d78:	e091      	b.n	8000e9e <HAL_GPIO_Init+0x146>
 8000d7a:	684a      	ldr	r2, [r1, #4]
 8000d7c:	005e      	lsls	r6, r3, #1
 8000d7e:	4694      	mov	ip, r2
 8000d80:	2203      	movs	r2, #3
 8000d82:	4664      	mov	r4, ip
 8000d84:	4022      	ands	r2, r4
 8000d86:	2403      	movs	r4, #3
 8000d88:	40b4      	lsls	r4, r6
 8000d8a:	43e4      	mvns	r4, r4
 8000d8c:	9402      	str	r4, [sp, #8]
 8000d8e:	1e54      	subs	r4, r2, #1
 8000d90:	2c01      	cmp	r4, #1
 8000d92:	d82a      	bhi.n	8000dea <HAL_GPIO_Init+0x92>
 8000d94:	6887      	ldr	r7, [r0, #8]
 8000d96:	9c02      	ldr	r4, [sp, #8]
 8000d98:	4027      	ands	r7, r4
 8000d9a:	68cc      	ldr	r4, [r1, #12]
 8000d9c:	40b4      	lsls	r4, r6
 8000d9e:	433c      	orrs	r4, r7
 8000da0:	6084      	str	r4, [r0, #8]
 8000da2:	6844      	ldr	r4, [r0, #4]
 8000da4:	2701      	movs	r7, #1
 8000da6:	43ac      	bics	r4, r5
 8000da8:	0025      	movs	r5, r4
 8000daa:	4664      	mov	r4, ip
 8000dac:	0924      	lsrs	r4, r4, #4
 8000dae:	403c      	ands	r4, r7
 8000db0:	409c      	lsls	r4, r3
 8000db2:	432c      	orrs	r4, r5
 8000db4:	6044      	str	r4, [r0, #4]
 8000db6:	68c5      	ldr	r5, [r0, #12]
 8000db8:	9c02      	ldr	r4, [sp, #8]
 8000dba:	4025      	ands	r5, r4
 8000dbc:	688c      	ldr	r4, [r1, #8]
 8000dbe:	40b4      	lsls	r4, r6
 8000dc0:	432c      	orrs	r4, r5
 8000dc2:	60c4      	str	r4, [r0, #12]
 8000dc4:	2a02      	cmp	r2, #2
 8000dc6:	d112      	bne.n	8000dee <HAL_GPIO_Init+0x96>
 8000dc8:	08dc      	lsrs	r4, r3, #3
 8000dca:	2507      	movs	r5, #7
 8000dcc:	00a4      	lsls	r4, r4, #2
 8000dce:	1904      	adds	r4, r0, r4
 8000dd0:	6a27      	ldr	r7, [r4, #32]
 8000dd2:	9403      	str	r4, [sp, #12]
 8000dd4:	240f      	movs	r4, #15
 8000dd6:	401d      	ands	r5, r3
 8000dd8:	00ad      	lsls	r5, r5, #2
 8000dda:	40ac      	lsls	r4, r5
 8000ddc:	43a7      	bics	r7, r4
 8000dde:	690c      	ldr	r4, [r1, #16]
 8000de0:	40ac      	lsls	r4, r5
 8000de2:	4327      	orrs	r7, r4
 8000de4:	9c03      	ldr	r4, [sp, #12]
 8000de6:	6227      	str	r7, [r4, #32]
 8000de8:	e001      	b.n	8000dee <HAL_GPIO_Init+0x96>
 8000dea:	2a03      	cmp	r2, #3
 8000dec:	d1e3      	bne.n	8000db6 <HAL_GPIO_Init+0x5e>
 8000dee:	6804      	ldr	r4, [r0, #0]
 8000df0:	9d02      	ldr	r5, [sp, #8]
 8000df2:	40b2      	lsls	r2, r6
 8000df4:	4025      	ands	r5, r4
 8000df6:	002c      	movs	r4, r5
 8000df8:	4314      	orrs	r4, r2
 8000dfa:	6004      	str	r4, [r0, #0]
 8000dfc:	24c0      	movs	r4, #192	; 0xc0
 8000dfe:	4662      	mov	r2, ip
 8000e00:	02a4      	lsls	r4, r4, #10
 8000e02:	4222      	tst	r2, r4
 8000e04:	d04b      	beq.n	8000e9e <HAL_GPIO_Init+0x146>
 8000e06:	2501      	movs	r5, #1
 8000e08:	4a26      	ldr	r2, [pc, #152]	; (8000ea4 <HAL_GPIO_Init+0x14c>)
 8000e0a:	2790      	movs	r7, #144	; 0x90
 8000e0c:	6994      	ldr	r4, [r2, #24]
 8000e0e:	05ff      	lsls	r7, r7, #23
 8000e10:	432c      	orrs	r4, r5
 8000e12:	6194      	str	r4, [r2, #24]
 8000e14:	6992      	ldr	r2, [r2, #24]
 8000e16:	089c      	lsrs	r4, r3, #2
 8000e18:	402a      	ands	r2, r5
 8000e1a:	9205      	str	r2, [sp, #20]
 8000e1c:	9a05      	ldr	r2, [sp, #20]
 8000e1e:	4a22      	ldr	r2, [pc, #136]	; (8000ea8 <HAL_GPIO_Init+0x150>)
 8000e20:	00a4      	lsls	r4, r4, #2
 8000e22:	18a4      	adds	r4, r4, r2
 8000e24:	220f      	movs	r2, #15
 8000e26:	3502      	adds	r5, #2
 8000e28:	401d      	ands	r5, r3
 8000e2a:	00ad      	lsls	r5, r5, #2
 8000e2c:	40aa      	lsls	r2, r5
 8000e2e:	68a6      	ldr	r6, [r4, #8]
 8000e30:	4396      	bics	r6, r2
 8000e32:	2200      	movs	r2, #0
 8000e34:	42b8      	cmp	r0, r7
 8000e36:	d008      	beq.n	8000e4a <HAL_GPIO_Init+0xf2>
 8000e38:	4f1c      	ldr	r7, [pc, #112]	; (8000eac <HAL_GPIO_Init+0x154>)
 8000e3a:	3201      	adds	r2, #1
 8000e3c:	42b8      	cmp	r0, r7
 8000e3e:	d004      	beq.n	8000e4a <HAL_GPIO_Init+0xf2>
 8000e40:	4f1b      	ldr	r7, [pc, #108]	; (8000eb0 <HAL_GPIO_Init+0x158>)
 8000e42:	3201      	adds	r2, #1
 8000e44:	42b8      	cmp	r0, r7
 8000e46:	d000      	beq.n	8000e4a <HAL_GPIO_Init+0xf2>
 8000e48:	3203      	adds	r2, #3
 8000e4a:	40aa      	lsls	r2, r5
 8000e4c:	4667      	mov	r7, ip
 8000e4e:	4332      	orrs	r2, r6
 8000e50:	60a2      	str	r2, [r4, #8]
 8000e52:	4a18      	ldr	r2, [pc, #96]	; (8000eb4 <HAL_GPIO_Init+0x15c>)
 8000e54:	9c01      	ldr	r4, [sp, #4]
 8000e56:	6896      	ldr	r6, [r2, #8]
 8000e58:	9d01      	ldr	r5, [sp, #4]
 8000e5a:	43e4      	mvns	r4, r4
 8000e5c:	4335      	orrs	r5, r6
 8000e5e:	02ff      	lsls	r7, r7, #11
 8000e60:	d401      	bmi.n	8000e66 <HAL_GPIO_Init+0x10e>
 8000e62:	0035      	movs	r5, r6
 8000e64:	4025      	ands	r5, r4
 8000e66:	4667      	mov	r7, ip
 8000e68:	6095      	str	r5, [r2, #8]
 8000e6a:	68d6      	ldr	r6, [r2, #12]
 8000e6c:	9d01      	ldr	r5, [sp, #4]
 8000e6e:	4335      	orrs	r5, r6
 8000e70:	02bf      	lsls	r7, r7, #10
 8000e72:	d401      	bmi.n	8000e78 <HAL_GPIO_Init+0x120>
 8000e74:	0035      	movs	r5, r6
 8000e76:	4025      	ands	r5, r4
 8000e78:	4667      	mov	r7, ip
 8000e7a:	60d5      	str	r5, [r2, #12]
 8000e7c:	6856      	ldr	r6, [r2, #4]
 8000e7e:	9d01      	ldr	r5, [sp, #4]
 8000e80:	4335      	orrs	r5, r6
 8000e82:	03bf      	lsls	r7, r7, #14
 8000e84:	d401      	bmi.n	8000e8a <HAL_GPIO_Init+0x132>
 8000e86:	0035      	movs	r5, r6
 8000e88:	4025      	ands	r5, r4
 8000e8a:	4667      	mov	r7, ip
 8000e8c:	6055      	str	r5, [r2, #4]
 8000e8e:	6815      	ldr	r5, [r2, #0]
 8000e90:	9e01      	ldr	r6, [sp, #4]
 8000e92:	432e      	orrs	r6, r5
 8000e94:	03ff      	lsls	r7, r7, #15
 8000e96:	d401      	bmi.n	8000e9c <HAL_GPIO_Init+0x144>
 8000e98:	4025      	ands	r5, r4
 8000e9a:	002e      	movs	r6, r5
 8000e9c:	6016      	str	r6, [r2, #0]
 8000e9e:	3301      	adds	r3, #1
 8000ea0:	e75d      	b.n	8000d5e <HAL_GPIO_Init+0x6>
 8000ea2:	46c0      	nop			; (mov r8, r8)
 8000ea4:	40021000 	.word	0x40021000
 8000ea8:	40010000 	.word	0x40010000
 8000eac:	48000400 	.word	0x48000400
 8000eb0:	48000800 	.word	0x48000800
 8000eb4:	40010400 	.word	0x40010400

08000eb8 <HAL_GPIO_ReadPin>:
 8000eb8:	6900      	ldr	r0, [r0, #16]
 8000eba:	4008      	ands	r0, r1
 8000ebc:	1e41      	subs	r1, r0, #1
 8000ebe:	4188      	sbcs	r0, r1
 8000ec0:	b2c0      	uxtb	r0, r0
 8000ec2:	4770      	bx	lr

08000ec4 <HAL_GPIO_WritePin>:
 8000ec4:	2a00      	cmp	r2, #0
 8000ec6:	d001      	beq.n	8000ecc <HAL_GPIO_WritePin+0x8>
 8000ec8:	6181      	str	r1, [r0, #24]
 8000eca:	4770      	bx	lr
 8000ecc:	6281      	str	r1, [r0, #40]	; 0x28
 8000ece:	e7fc      	b.n	8000eca <HAL_GPIO_WritePin+0x6>

08000ed0 <HAL_I2CEx_EnableFastModePlus>:
 8000ed0:	b537      	push	{r0, r1, r2, r4, r5, lr}
 8000ed2:	2501      	movs	r5, #1
 8000ed4:	4906      	ldr	r1, [pc, #24]	; (8000ef0 <HAL_I2CEx_EnableFastModePlus+0x20>)
 8000ed6:	698c      	ldr	r4, [r1, #24]
 8000ed8:	432c      	orrs	r4, r5
 8000eda:	618c      	str	r4, [r1, #24]
 8000edc:	698a      	ldr	r2, [r1, #24]
 8000ede:	402a      	ands	r2, r5
 8000ee0:	9201      	str	r2, [sp, #4]
 8000ee2:	4a04      	ldr	r2, [pc, #16]	; (8000ef4 <HAL_I2CEx_EnableFastModePlus+0x24>)
 8000ee4:	9b01      	ldr	r3, [sp, #4]
 8000ee6:	6813      	ldr	r3, [r2, #0]
 8000ee8:	4303      	orrs	r3, r0
 8000eea:	6013      	str	r3, [r2, #0]
 8000eec:	bd37      	pop	{r0, r1, r2, r4, r5, pc}
 8000eee:	46c0      	nop			; (mov r8, r8)
 8000ef0:	40021000 	.word	0x40021000
 8000ef4:	40010000 	.word	0x40010000

08000ef8 <HAL_RCC_OscConfig>:
 8000ef8:	b5f0      	push	{r4, r5, r6, r7, lr}
 8000efa:	0004      	movs	r4, r0
 8000efc:	b085      	sub	sp, #20
 8000efe:	2800      	cmp	r0, #0
 8000f00:	d045      	beq.n	8000f8e <HAL_RCC_OscConfig+0x96>
 8000f02:	6803      	ldr	r3, [r0, #0]
 8000f04:	07db      	lsls	r3, r3, #31
 8000f06:	d42f      	bmi.n	8000f68 <HAL_RCC_OscConfig+0x70>
 8000f08:	6823      	ldr	r3, [r4, #0]
 8000f0a:	079b      	lsls	r3, r3, #30
 8000f0c:	d500      	bpl.n	8000f10 <HAL_RCC_OscConfig+0x18>
 8000f0e:	e081      	b.n	8001014 <HAL_RCC_OscConfig+0x11c>
 8000f10:	6823      	ldr	r3, [r4, #0]
 8000f12:	071b      	lsls	r3, r3, #28
 8000f14:	d500      	bpl.n	8000f18 <HAL_RCC_OscConfig+0x20>
 8000f16:	e0bc      	b.n	8001092 <HAL_RCC_OscConfig+0x19a>
 8000f18:	6823      	ldr	r3, [r4, #0]
 8000f1a:	075b      	lsls	r3, r3, #29
 8000f1c:	d500      	bpl.n	8000f20 <HAL_RCC_OscConfig+0x28>
 8000f1e:	e0df      	b.n	80010e0 <HAL_RCC_OscConfig+0x1e8>
 8000f20:	6823      	ldr	r3, [r4, #0]
 8000f22:	06db      	lsls	r3, r3, #27
 8000f24:	d51a      	bpl.n	8000f5c <HAL_RCC_OscConfig+0x64>
 8000f26:	6962      	ldr	r2, [r4, #20]
 8000f28:	2304      	movs	r3, #4
 8000f2a:	4db5      	ldr	r5, [pc, #724]	; (8001200 <HAL_RCC_OscConfig+0x308>)
 8000f2c:	2a01      	cmp	r2, #1
 8000f2e:	d000      	beq.n	8000f32 <HAL_RCC_OscConfig+0x3a>
 8000f30:	e14a      	b.n	80011c8 <HAL_RCC_OscConfig+0x2d0>
 8000f32:	6b69      	ldr	r1, [r5, #52]	; 0x34
 8000f34:	2702      	movs	r7, #2
 8000f36:	430b      	orrs	r3, r1
 8000f38:	636b      	str	r3, [r5, #52]	; 0x34
 8000f3a:	6b6b      	ldr	r3, [r5, #52]	; 0x34
 8000f3c:	431a      	orrs	r2, r3
 8000f3e:	636a      	str	r2, [r5, #52]	; 0x34
 8000f40:	f7ff feb4 	bl	8000cac <HAL_GetTick>
 8000f44:	0006      	movs	r6, r0
 8000f46:	6b6b      	ldr	r3, [r5, #52]	; 0x34
 8000f48:	423b      	tst	r3, r7
 8000f4a:	d100      	bne.n	8000f4e <HAL_RCC_OscConfig+0x56>
 8000f4c:	e135      	b.n	80011ba <HAL_RCC_OscConfig+0x2c2>
 8000f4e:	21f8      	movs	r1, #248	; 0xf8
 8000f50:	6b6a      	ldr	r2, [r5, #52]	; 0x34
 8000f52:	69a3      	ldr	r3, [r4, #24]
 8000f54:	438a      	bics	r2, r1
 8000f56:	00db      	lsls	r3, r3, #3
 8000f58:	4313      	orrs	r3, r2
 8000f5a:	636b      	str	r3, [r5, #52]	; 0x34
 8000f5c:	6a23      	ldr	r3, [r4, #32]
 8000f5e:	2b00      	cmp	r3, #0
 8000f60:	d000      	beq.n	8000f64 <HAL_RCC_OscConfig+0x6c>
 8000f62:	e159      	b.n	8001218 <HAL_RCC_OscConfig+0x320>
 8000f64:	2000      	movs	r0, #0
 8000f66:	e02a      	b.n	8000fbe <HAL_RCC_OscConfig+0xc6>
 8000f68:	210c      	movs	r1, #12
 8000f6a:	4da5      	ldr	r5, [pc, #660]	; (8001200 <HAL_RCC_OscConfig+0x308>)
 8000f6c:	686a      	ldr	r2, [r5, #4]
 8000f6e:	400a      	ands	r2, r1
 8000f70:	2a04      	cmp	r2, #4
 8000f72:	d006      	beq.n	8000f82 <HAL_RCC_OscConfig+0x8a>
 8000f74:	686b      	ldr	r3, [r5, #4]
 8000f76:	400b      	ands	r3, r1
 8000f78:	2b08      	cmp	r3, #8
 8000f7a:	d10a      	bne.n	8000f92 <HAL_RCC_OscConfig+0x9a>
 8000f7c:	686b      	ldr	r3, [r5, #4]
 8000f7e:	03db      	lsls	r3, r3, #15
 8000f80:	d507      	bpl.n	8000f92 <HAL_RCC_OscConfig+0x9a>
 8000f82:	682b      	ldr	r3, [r5, #0]
 8000f84:	039b      	lsls	r3, r3, #14
 8000f86:	d5bf      	bpl.n	8000f08 <HAL_RCC_OscConfig+0x10>
 8000f88:	6863      	ldr	r3, [r4, #4]
 8000f8a:	2b00      	cmp	r3, #0
 8000f8c:	d1bc      	bne.n	8000f08 <HAL_RCC_OscConfig+0x10>
 8000f8e:	2001      	movs	r0, #1
 8000f90:	e015      	b.n	8000fbe <HAL_RCC_OscConfig+0xc6>
 8000f92:	6863      	ldr	r3, [r4, #4]
 8000f94:	2b01      	cmp	r3, #1
 8000f96:	d114      	bne.n	8000fc2 <HAL_RCC_OscConfig+0xca>
 8000f98:	2380      	movs	r3, #128	; 0x80
 8000f9a:	682a      	ldr	r2, [r5, #0]
 8000f9c:	025b      	lsls	r3, r3, #9
 8000f9e:	4313      	orrs	r3, r2
 8000fa0:	602b      	str	r3, [r5, #0]
 8000fa2:	f7ff fe83 	bl	8000cac <HAL_GetTick>
 8000fa6:	2780      	movs	r7, #128	; 0x80
 8000fa8:	0006      	movs	r6, r0
 8000faa:	02bf      	lsls	r7, r7, #10
 8000fac:	682b      	ldr	r3, [r5, #0]
 8000fae:	423b      	tst	r3, r7
 8000fb0:	d1aa      	bne.n	8000f08 <HAL_RCC_OscConfig+0x10>
 8000fb2:	f7ff fe7b 	bl	8000cac <HAL_GetTick>
 8000fb6:	1b80      	subs	r0, r0, r6
 8000fb8:	2864      	cmp	r0, #100	; 0x64
 8000fba:	d9f7      	bls.n	8000fac <HAL_RCC_OscConfig+0xb4>
 8000fbc:	2003      	movs	r0, #3
 8000fbe:	b005      	add	sp, #20
 8000fc0:	bdf0      	pop	{r4, r5, r6, r7, pc}
 8000fc2:	2b00      	cmp	r3, #0
 8000fc4:	d116      	bne.n	8000ff4 <HAL_RCC_OscConfig+0xfc>
 8000fc6:	682b      	ldr	r3, [r5, #0]
 8000fc8:	4a8e      	ldr	r2, [pc, #568]	; (8001204 <HAL_RCC_OscConfig+0x30c>)
 8000fca:	2780      	movs	r7, #128	; 0x80
 8000fcc:	4013      	ands	r3, r2
 8000fce:	602b      	str	r3, [r5, #0]
 8000fd0:	682b      	ldr	r3, [r5, #0]
 8000fd2:	4a8d      	ldr	r2, [pc, #564]	; (8001208 <HAL_RCC_OscConfig+0x310>)
 8000fd4:	02bf      	lsls	r7, r7, #10
 8000fd6:	4013      	ands	r3, r2
 8000fd8:	602b      	str	r3, [r5, #0]
 8000fda:	f7ff fe67 	bl	8000cac <HAL_GetTick>
 8000fde:	0006      	movs	r6, r0
 8000fe0:	682b      	ldr	r3, [r5, #0]
 8000fe2:	423b      	tst	r3, r7
 8000fe4:	d100      	bne.n	8000fe8 <HAL_RCC_OscConfig+0xf0>
 8000fe6:	e78f      	b.n	8000f08 <HAL_RCC_OscConfig+0x10>
 8000fe8:	f7ff fe60 	bl	8000cac <HAL_GetTick>
 8000fec:	1b80      	subs	r0, r0, r6
 8000fee:	2864      	cmp	r0, #100	; 0x64
 8000ff0:	d9f6      	bls.n	8000fe0 <HAL_RCC_OscConfig+0xe8>
 8000ff2:	e7e3      	b.n	8000fbc <HAL_RCC_OscConfig+0xc4>
 8000ff4:	2b05      	cmp	r3, #5
 8000ff6:	d105      	bne.n	8001004 <HAL_RCC_OscConfig+0x10c>
 8000ff8:	2380      	movs	r3, #128	; 0x80
 8000ffa:	682a      	ldr	r2, [r5, #0]
 8000ffc:	02db      	lsls	r3, r3, #11
 8000ffe:	4313      	orrs	r3, r2
 8001000:	602b      	str	r3, [r5, #0]
 8001002:	e7c9      	b.n	8000f98 <HAL_RCC_OscConfig+0xa0>
 8001004:	682b      	ldr	r3, [r5, #0]
 8001006:	4a7f      	ldr	r2, [pc, #508]	; (8001204 <HAL_RCC_OscConfig+0x30c>)
 8001008:	4013      	ands	r3, r2
 800100a:	602b      	str	r3, [r5, #0]
 800100c:	682b      	ldr	r3, [r5, #0]
 800100e:	4a7e      	ldr	r2, [pc, #504]	; (8001208 <HAL_RCC_OscConfig+0x310>)
 8001010:	4013      	ands	r3, r2
 8001012:	e7c5      	b.n	8000fa0 <HAL_RCC_OscConfig+0xa8>
 8001014:	220c      	movs	r2, #12
 8001016:	4d7a      	ldr	r5, [pc, #488]	; (8001200 <HAL_RCC_OscConfig+0x308>)
 8001018:	686b      	ldr	r3, [r5, #4]
 800101a:	4213      	tst	r3, r2
 800101c:	d006      	beq.n	800102c <HAL_RCC_OscConfig+0x134>
 800101e:	686b      	ldr	r3, [r5, #4]
 8001020:	4013      	ands	r3, r2
 8001022:	2b08      	cmp	r3, #8
 8001024:	d110      	bne.n	8001048 <HAL_RCC_OscConfig+0x150>
 8001026:	686b      	ldr	r3, [r5, #4]
 8001028:	03db      	lsls	r3, r3, #15
 800102a:	d40d      	bmi.n	8001048 <HAL_RCC_OscConfig+0x150>
 800102c:	682b      	ldr	r3, [r5, #0]
 800102e:	079b      	lsls	r3, r3, #30
 8001030:	d502      	bpl.n	8001038 <HAL_RCC_OscConfig+0x140>
 8001032:	68e3      	ldr	r3, [r4, #12]
 8001034:	2b01      	cmp	r3, #1
 8001036:	d1aa      	bne.n	8000f8e <HAL_RCC_OscConfig+0x96>
 8001038:	21f8      	movs	r1, #248	; 0xf8
 800103a:	682a      	ldr	r2, [r5, #0]
 800103c:	6923      	ldr	r3, [r4, #16]
 800103e:	438a      	bics	r2, r1
 8001040:	00db      	lsls	r3, r3, #3
 8001042:	4313      	orrs	r3, r2
 8001044:	602b      	str	r3, [r5, #0]
 8001046:	e763      	b.n	8000f10 <HAL_RCC_OscConfig+0x18>
 8001048:	68e2      	ldr	r2, [r4, #12]
 800104a:	2301      	movs	r3, #1
 800104c:	2a00      	cmp	r2, #0
 800104e:	d00f      	beq.n	8001070 <HAL_RCC_OscConfig+0x178>
 8001050:	682a      	ldr	r2, [r5, #0]
 8001052:	2702      	movs	r7, #2
 8001054:	4313      	orrs	r3, r2
 8001056:	602b      	str	r3, [r5, #0]
 8001058:	f7ff fe28 	bl	8000cac <HAL_GetTick>
 800105c:	0006      	movs	r6, r0
 800105e:	682b      	ldr	r3, [r5, #0]
 8001060:	423b      	tst	r3, r7
 8001062:	d1e9      	bne.n	8001038 <HAL_RCC_OscConfig+0x140>
 8001064:	f7ff fe22 	bl	8000cac <HAL_GetTick>
 8001068:	1b80      	subs	r0, r0, r6
 800106a:	2802      	cmp	r0, #2
 800106c:	d9f7      	bls.n	800105e <HAL_RCC_OscConfig+0x166>
 800106e:	e7a5      	b.n	8000fbc <HAL_RCC_OscConfig+0xc4>
 8001070:	682a      	ldr	r2, [r5, #0]
 8001072:	2702      	movs	r7, #2
 8001074:	439a      	bics	r2, r3
 8001076:	602a      	str	r2, [r5, #0]
 8001078:	f7ff fe18 	bl	8000cac <HAL_GetTick>
 800107c:	0006      	movs	r6, r0
 800107e:	682b      	ldr	r3, [r5, #0]
 8001080:	423b      	tst	r3, r7
 8001082:	d100      	bne.n	8001086 <HAL_RCC_OscConfig+0x18e>
 8001084:	e744      	b.n	8000f10 <HAL_RCC_OscConfig+0x18>
 8001086:	f7ff fe11 	bl	8000cac <HAL_GetTick>
 800108a:	1b80      	subs	r0, r0, r6
 800108c:	2802      	cmp	r0, #2
 800108e:	d9f6      	bls.n	800107e <HAL_RCC_OscConfig+0x186>
 8001090:	e794      	b.n	8000fbc <HAL_RCC_OscConfig+0xc4>
 8001092:	69e2      	ldr	r2, [r4, #28]
 8001094:	2301      	movs	r3, #1
 8001096:	4d5a      	ldr	r5, [pc, #360]	; (8001200 <HAL_RCC_OscConfig+0x308>)
 8001098:	2a00      	cmp	r2, #0
 800109a:	d010      	beq.n	80010be <HAL_RCC_OscConfig+0x1c6>
 800109c:	6a6a      	ldr	r2, [r5, #36]	; 0x24
 800109e:	2702      	movs	r7, #2
 80010a0:	4313      	orrs	r3, r2
 80010a2:	626b      	str	r3, [r5, #36]	; 0x24
 80010a4:	f7ff fe02 	bl	8000cac <HAL_GetTick>
 80010a8:	0006      	movs	r6, r0
 80010aa:	6a6b      	ldr	r3, [r5, #36]	; 0x24
 80010ac:	423b      	tst	r3, r7
 80010ae:	d000      	beq.n	80010b2 <HAL_RCC_OscConfig+0x1ba>
 80010b0:	e732      	b.n	8000f18 <HAL_RCC_OscConfig+0x20>
 80010b2:	f7ff fdfb 	bl	8000cac <HAL_GetTick>
 80010b6:	1b80      	subs	r0, r0, r6
 80010b8:	2802      	cmp	r0, #2
 80010ba:	d9f6      	bls.n	80010aa <HAL_RCC_OscConfig+0x1b2>
 80010bc:	e77e      	b.n	8000fbc <HAL_RCC_OscConfig+0xc4>
 80010be:	6a6a      	ldr	r2, [r5, #36]	; 0x24
 80010c0:	2702      	movs	r7, #2
 80010c2:	439a      	bics	r2, r3
 80010c4:	626a      	str	r2, [r5, #36]	; 0x24
 80010c6:	f7ff fdf1 	bl	8000cac <HAL_GetTick>
 80010ca:	0006      	movs	r6, r0
 80010cc:	6a6b      	ldr	r3, [r5, #36]	; 0x24
 80010ce:	423b      	tst	r3, r7
 80010d0:	d100      	bne.n	80010d4 <HAL_RCC_OscConfig+0x1dc>
 80010d2:	e721      	b.n	8000f18 <HAL_RCC_OscConfig+0x20>
 80010d4:	f7ff fdea 	bl	8000cac <HAL_GetTick>
 80010d8:	1b80      	subs	r0, r0, r6
 80010da:	2802      	cmp	r0, #2
 80010dc:	d9f6      	bls.n	80010cc <HAL_RCC_OscConfig+0x1d4>
 80010de:	e76d      	b.n	8000fbc <HAL_RCC_OscConfig+0xc4>
 80010e0:	2280      	movs	r2, #128	; 0x80
 80010e2:	2100      	movs	r1, #0
 80010e4:	4d46      	ldr	r5, [pc, #280]	; (8001200 <HAL_RCC_OscConfig+0x308>)
 80010e6:	0552      	lsls	r2, r2, #21
 80010e8:	69eb      	ldr	r3, [r5, #28]
 80010ea:	9100      	str	r1, [sp, #0]
 80010ec:	4213      	tst	r3, r2
 80010ee:	d108      	bne.n	8001102 <HAL_RCC_OscConfig+0x20a>
 80010f0:	69eb      	ldr	r3, [r5, #28]
 80010f2:	4313      	orrs	r3, r2
 80010f4:	61eb      	str	r3, [r5, #28]
 80010f6:	69eb      	ldr	r3, [r5, #28]
 80010f8:	4013      	ands	r3, r2
 80010fa:	9303      	str	r3, [sp, #12]
 80010fc:	9b03      	ldr	r3, [sp, #12]
 80010fe:	2301      	movs	r3, #1
 8001100:	9300      	str	r3, [sp, #0]
 8001102:	2780      	movs	r7, #128	; 0x80
 8001104:	4e41      	ldr	r6, [pc, #260]	; (800120c <HAL_RCC_OscConfig+0x314>)
 8001106:	007f      	lsls	r7, r7, #1
 8001108:	6833      	ldr	r3, [r6, #0]
 800110a:	423b      	tst	r3, r7
 800110c:	d006      	beq.n	800111c <HAL_RCC_OscConfig+0x224>
 800110e:	68a3      	ldr	r3, [r4, #8]
 8001110:	2b01      	cmp	r3, #1
 8001112:	d113      	bne.n	800113c <HAL_RCC_OscConfig+0x244>
 8001114:	6a2a      	ldr	r2, [r5, #32]
 8001116:	4313      	orrs	r3, r2
 8001118:	622b      	str	r3, [r5, #32]
 800111a:	e030      	b.n	800117e <HAL_RCC_OscConfig+0x286>
 800111c:	6833      	ldr	r3, [r6, #0]
 800111e:	433b      	orrs	r3, r7
 8001120:	6033      	str	r3, [r6, #0]
 8001122:	f7ff fdc3 	bl	8000cac <HAL_GetTick>
 8001126:	9001      	str	r0, [sp, #4]
 8001128:	6833      	ldr	r3, [r6, #0]
 800112a:	423b      	tst	r3, r7
 800112c:	d1ef      	bne.n	800110e <HAL_RCC_OscConfig+0x216>
 800112e:	f7ff fdbd 	bl	8000cac <HAL_GetTick>
 8001132:	9b01      	ldr	r3, [sp, #4]
 8001134:	1ac0      	subs	r0, r0, r3
 8001136:	2864      	cmp	r0, #100	; 0x64
 8001138:	d9f6      	bls.n	8001128 <HAL_RCC_OscConfig+0x230>
 800113a:	e73f      	b.n	8000fbc <HAL_RCC_OscConfig+0xc4>
 800113c:	2201      	movs	r2, #1
 800113e:	2b00      	cmp	r3, #0
 8001140:	d114      	bne.n	800116c <HAL_RCC_OscConfig+0x274>
 8001142:	6a2b      	ldr	r3, [r5, #32]
 8001144:	2702      	movs	r7, #2
 8001146:	4393      	bics	r3, r2
 8001148:	622b      	str	r3, [r5, #32]
 800114a:	6a2b      	ldr	r3, [r5, #32]
 800114c:	3203      	adds	r2, #3
 800114e:	4393      	bics	r3, r2
 8001150:	622b      	str	r3, [r5, #32]
 8001152:	f7ff fdab 	bl	8000cac <HAL_GetTick>
 8001156:	0006      	movs	r6, r0
 8001158:	6a2b      	ldr	r3, [r5, #32]
 800115a:	423b      	tst	r3, r7
 800115c:	d016      	beq.n	800118c <HAL_RCC_OscConfig+0x294>
 800115e:	f7ff fda5 	bl	8000cac <HAL_GetTick>
 8001162:	4b2b      	ldr	r3, [pc, #172]	; (8001210 <HAL_RCC_OscConfig+0x318>)
 8001164:	1b80      	subs	r0, r0, r6
 8001166:	4298      	cmp	r0, r3
 8001168:	d9f6      	bls.n	8001158 <HAL_RCC_OscConfig+0x260>
 800116a:	e727      	b.n	8000fbc <HAL_RCC_OscConfig+0xc4>
 800116c:	2b05      	cmp	r3, #5
 800116e:	d116      	bne.n	800119e <HAL_RCC_OscConfig+0x2a6>
 8001170:	6a29      	ldr	r1, [r5, #32]
 8001172:	3b01      	subs	r3, #1
 8001174:	430b      	orrs	r3, r1
 8001176:	622b      	str	r3, [r5, #32]
 8001178:	6a2b      	ldr	r3, [r5, #32]
 800117a:	431a      	orrs	r2, r3
 800117c:	622a      	str	r2, [r5, #32]
 800117e:	f7ff fd95 	bl	8000cac <HAL_GetTick>
 8001182:	2702      	movs	r7, #2
 8001184:	0006      	movs	r6, r0
 8001186:	6a2b      	ldr	r3, [r5, #32]
 8001188:	423b      	tst	r3, r7
 800118a:	d00f      	beq.n	80011ac <HAL_RCC_OscConfig+0x2b4>
 800118c:	9b00      	ldr	r3, [sp, #0]
 800118e:	2b01      	cmp	r3, #1
 8001190:	d000      	beq.n	8001194 <HAL_RCC_OscConfig+0x29c>
 8001192:	e6c5      	b.n	8000f20 <HAL_RCC_OscConfig+0x28>
 8001194:	69eb      	ldr	r3, [r5, #28]
 8001196:	4a1f      	ldr	r2, [pc, #124]	; (8001214 <HAL_RCC_OscConfig+0x31c>)
 8001198:	4013      	ands	r3, r2
 800119a:	61eb      	str	r3, [r5, #28]
 800119c:	e6c0      	b.n	8000f20 <HAL_RCC_OscConfig+0x28>
 800119e:	6a2b      	ldr	r3, [r5, #32]
 80011a0:	4393      	bics	r3, r2
 80011a2:	2204      	movs	r2, #4
 80011a4:	622b      	str	r3, [r5, #32]
 80011a6:	6a2b      	ldr	r3, [r5, #32]
 80011a8:	4393      	bics	r3, r2
 80011aa:	e7b5      	b.n	8001118 <HAL_RCC_OscConfig+0x220>
 80011ac:	f7ff fd7e 	bl	8000cac <HAL_GetTick>
 80011b0:	4b17      	ldr	r3, [pc, #92]	; (8001210 <HAL_RCC_OscConfig+0x318>)
 80011b2:	1b80      	subs	r0, r0, r6
 80011b4:	4298      	cmp	r0, r3
 80011b6:	d9e6      	bls.n	8001186 <HAL_RCC_OscConfig+0x28e>
 80011b8:	e700      	b.n	8000fbc <HAL_RCC_OscConfig+0xc4>
 80011ba:	f7ff fd77 	bl	8000cac <HAL_GetTick>
 80011be:	1b80      	subs	r0, r0, r6
 80011c0:	2802      	cmp	r0, #2
 80011c2:	d800      	bhi.n	80011c6 <HAL_RCC_OscConfig+0x2ce>
 80011c4:	e6bf      	b.n	8000f46 <HAL_RCC_OscConfig+0x4e>
 80011c6:	e6f9      	b.n	8000fbc <HAL_RCC_OscConfig+0xc4>
 80011c8:	3205      	adds	r2, #5
 80011ca:	d103      	bne.n	80011d4 <HAL_RCC_OscConfig+0x2dc>
 80011cc:	6b6a      	ldr	r2, [r5, #52]	; 0x34
 80011ce:	439a      	bics	r2, r3
 80011d0:	636a      	str	r2, [r5, #52]	; 0x34
 80011d2:	e6bc      	b.n	8000f4e <HAL_RCC_OscConfig+0x56>
 80011d4:	6b6a      	ldr	r2, [r5, #52]	; 0x34
 80011d6:	2702      	movs	r7, #2
 80011d8:	4313      	orrs	r3, r2
 80011da:	2201      	movs	r2, #1
 80011dc:	636b      	str	r3, [r5, #52]	; 0x34
 80011de:	6b6b      	ldr	r3, [r5, #52]	; 0x34
 80011e0:	4393      	bics	r3, r2
 80011e2:	636b      	str	r3, [r5, #52]	; 0x34
 80011e4:	f7ff fd62 	bl	8000cac <HAL_GetTick>
 80011e8:	0006      	movs	r6, r0
 80011ea:	6b6b      	ldr	r3, [r5, #52]	; 0x34
 80011ec:	423b      	tst	r3, r7
 80011ee:	d100      	bne.n	80011f2 <HAL_RCC_OscConfig+0x2fa>
 80011f0:	e6b4      	b.n	8000f5c <HAL_RCC_OscConfig+0x64>
 80011f2:	f7ff fd5b 	bl	8000cac <HAL_GetTick>
 80011f6:	1b80      	subs	r0, r0, r6
 80011f8:	2802      	cmp	r0, #2
 80011fa:	d9f6      	bls.n	80011ea <HAL_RCC_OscConfig+0x2f2>
 80011fc:	e6de      	b.n	8000fbc <HAL_RCC_OscConfig+0xc4>
 80011fe:	46c0      	nop			; (mov r8, r8)
 8001200:	40021000 	.word	0x40021000
 8001204:	fffeffff 	.word	0xfffeffff
 8001208:	fffbffff 	.word	0xfffbffff
 800120c:	40007000 	.word	0x40007000
 8001210:	00001388 	.word	0x00001388
 8001214:	efffffff 	.word	0xefffffff
 8001218:	200c      	movs	r0, #12
 800121a:	4a34      	ldr	r2, [pc, #208]	; (80012ec <HAL_RCC_OscConfig+0x3f4>)
 800121c:	6851      	ldr	r1, [r2, #4]
 800121e:	0015      	movs	r5, r2
 8001220:	4001      	ands	r1, r0
 8001222:	2908      	cmp	r1, #8
 8001224:	d047      	beq.n	80012b6 <HAL_RCC_OscConfig+0x3be>
 8001226:	4a32      	ldr	r2, [pc, #200]	; (80012f0 <HAL_RCC_OscConfig+0x3f8>)
 8001228:	2b02      	cmp	r3, #2
 800122a:	d132      	bne.n	8001292 <HAL_RCC_OscConfig+0x39a>
 800122c:	682b      	ldr	r3, [r5, #0]
 800122e:	2780      	movs	r7, #128	; 0x80
 8001230:	4013      	ands	r3, r2
 8001232:	602b      	str	r3, [r5, #0]
 8001234:	f7ff fd3a 	bl	8000cac <HAL_GetTick>
 8001238:	0006      	movs	r6, r0
 800123a:	04bf      	lsls	r7, r7, #18
 800123c:	682b      	ldr	r3, [r5, #0]
 800123e:	423b      	tst	r3, r7
 8001240:	d121      	bne.n	8001286 <HAL_RCC_OscConfig+0x38e>
 8001242:	220f      	movs	r2, #15
 8001244:	6aeb      	ldr	r3, [r5, #44]	; 0x2c
 8001246:	2680      	movs	r6, #128	; 0x80
 8001248:	4393      	bics	r3, r2
 800124a:	6ae2      	ldr	r2, [r4, #44]	; 0x2c
 800124c:	04b6      	lsls	r6, r6, #18
 800124e:	4313      	orrs	r3, r2
 8001250:	62eb      	str	r3, [r5, #44]	; 0x2c
 8001252:	6a61      	ldr	r1, [r4, #36]	; 0x24
 8001254:	6aa3      	ldr	r3, [r4, #40]	; 0x28
 8001256:	686a      	ldr	r2, [r5, #4]
 8001258:	430b      	orrs	r3, r1
 800125a:	4926      	ldr	r1, [pc, #152]	; (80012f4 <HAL_RCC_OscConfig+0x3fc>)
 800125c:	400a      	ands	r2, r1
 800125e:	4313      	orrs	r3, r2
 8001260:	606b      	str	r3, [r5, #4]
 8001262:	2380      	movs	r3, #128	; 0x80
 8001264:	682a      	ldr	r2, [r5, #0]
 8001266:	045b      	lsls	r3, r3, #17
 8001268:	4313      	orrs	r3, r2
 800126a:	602b      	str	r3, [r5, #0]
 800126c:	f7ff fd1e 	bl	8000cac <HAL_GetTick>
 8001270:	0004      	movs	r4, r0
 8001272:	682b      	ldr	r3, [r5, #0]
 8001274:	4233      	tst	r3, r6
 8001276:	d000      	beq.n	800127a <HAL_RCC_OscConfig+0x382>
 8001278:	e674      	b.n	8000f64 <HAL_RCC_OscConfig+0x6c>
 800127a:	f7ff fd17 	bl	8000cac <HAL_GetTick>
 800127e:	1b00      	subs	r0, r0, r4
 8001280:	2802      	cmp	r0, #2
 8001282:	d9f6      	bls.n	8001272 <HAL_RCC_OscConfig+0x37a>
 8001284:	e69a      	b.n	8000fbc <HAL_RCC_OscConfig+0xc4>
 8001286:	f7ff fd11 	bl	8000cac <HAL_GetTick>
 800128a:	1b80      	subs	r0, r0, r6
 800128c:	2802      	cmp	r0, #2
 800128e:	d9d5      	bls.n	800123c <HAL_RCC_OscConfig+0x344>
 8001290:	e694      	b.n	8000fbc <HAL_RCC_OscConfig+0xc4>
 8001292:	682b      	ldr	r3, [r5, #0]
 8001294:	2680      	movs	r6, #128	; 0x80
 8001296:	4013      	ands	r3, r2
 8001298:	602b      	str	r3, [r5, #0]
 800129a:	f7ff fd07 	bl	8000cac <HAL_GetTick>
 800129e:	0004      	movs	r4, r0
 80012a0:	04b6      	lsls	r6, r6, #18
 80012a2:	682b      	ldr	r3, [r5, #0]
 80012a4:	4233      	tst	r3, r6
 80012a6:	d100      	bne.n	80012aa <HAL_RCC_OscConfig+0x3b2>
 80012a8:	e65c      	b.n	8000f64 <HAL_RCC_OscConfig+0x6c>
 80012aa:	f7ff fcff 	bl	8000cac <HAL_GetTick>
 80012ae:	1b00      	subs	r0, r0, r4
 80012b0:	2802      	cmp	r0, #2
 80012b2:	d9f6      	bls.n	80012a2 <HAL_RCC_OscConfig+0x3aa>
 80012b4:	e682      	b.n	8000fbc <HAL_RCC_OscConfig+0xc4>
 80012b6:	0018      	movs	r0, r3
 80012b8:	2b01      	cmp	r3, #1
 80012ba:	d100      	bne.n	80012be <HAL_RCC_OscConfig+0x3c6>
 80012bc:	e67f      	b.n	8000fbe <HAL_RCC_OscConfig+0xc6>
 80012be:	2180      	movs	r1, #128	; 0x80
 80012c0:	6853      	ldr	r3, [r2, #4]
 80012c2:	6a60      	ldr	r0, [r4, #36]	; 0x24
 80012c4:	0249      	lsls	r1, r1, #9
 80012c6:	6ad2      	ldr	r2, [r2, #44]	; 0x2c
 80012c8:	4019      	ands	r1, r3
 80012ca:	4281      	cmp	r1, r0
 80012cc:	d000      	beq.n	80012d0 <HAL_RCC_OscConfig+0x3d8>
 80012ce:	e65e      	b.n	8000f8e <HAL_RCC_OscConfig+0x96>
 80012d0:	210f      	movs	r1, #15
 80012d2:	400a      	ands	r2, r1
 80012d4:	6ae1      	ldr	r1, [r4, #44]	; 0x2c
 80012d6:	428a      	cmp	r2, r1
 80012d8:	d000      	beq.n	80012dc <HAL_RCC_OscConfig+0x3e4>
 80012da:	e658      	b.n	8000f8e <HAL_RCC_OscConfig+0x96>
 80012dc:	22f0      	movs	r2, #240	; 0xf0
 80012de:	0392      	lsls	r2, r2, #14
 80012e0:	4013      	ands	r3, r2
 80012e2:	6aa2      	ldr	r2, [r4, #40]	; 0x28
 80012e4:	4293      	cmp	r3, r2
 80012e6:	d100      	bne.n	80012ea <HAL_RCC_OscConfig+0x3f2>
 80012e8:	e63c      	b.n	8000f64 <HAL_RCC_OscConfig+0x6c>
 80012ea:	e650      	b.n	8000f8e <HAL_RCC_OscConfig+0x96>
 80012ec:	40021000 	.word	0x40021000
 80012f0:	feffffff 	.word	0xfeffffff
 80012f4:	ffc2ffff 	.word	0xffc2ffff

080012f8 <HAL_RCC_GetSysClockFreq>:
 80012f8:	220c      	movs	r2, #12
 80012fa:	b570      	push	{r4, r5, r6, lr}
 80012fc:	4d0c      	ldr	r5, [pc, #48]	; (8001330 <HAL_RCC_GetSysClockFreq+0x38>)
 80012fe:	686b      	ldr	r3, [r5, #4]
 8001300:	401a      	ands	r2, r3
 8001302:	2a08      	cmp	r2, #8
 8001304:	d111      	bne.n	800132a <HAL_RCC_GetSysClockFreq+0x32>
 8001306:	200f      	movs	r0, #15
 8001308:	4a0a      	ldr	r2, [pc, #40]	; (8001334 <HAL_RCC_GetSysClockFreq+0x3c>)
 800130a:	0c99      	lsrs	r1, r3, #18
 800130c:	4001      	ands	r1, r0
 800130e:	5c54      	ldrb	r4, [r2, r1]
 8001310:	6aea      	ldr	r2, [r5, #44]	; 0x2c
 8001312:	4909      	ldr	r1, [pc, #36]	; (8001338 <HAL_RCC_GetSysClockFreq+0x40>)
 8001314:	4002      	ands	r2, r0
 8001316:	5c89      	ldrb	r1, [r1, r2]
 8001318:	03db      	lsls	r3, r3, #15
 800131a:	d504      	bpl.n	8001326 <HAL_RCC_GetSysClockFreq+0x2e>
 800131c:	4807      	ldr	r0, [pc, #28]	; (800133c <HAL_RCC_GetSysClockFreq+0x44>)
 800131e:	f7fe ff07 	bl	8000130 <__udivsi3>
 8001322:	4360      	muls	r0, r4
 8001324:	bd70      	pop	{r4, r5, r6, pc}
 8001326:	4806      	ldr	r0, [pc, #24]	; (8001340 <HAL_RCC_GetSysClockFreq+0x48>)
 8001328:	e7fb      	b.n	8001322 <HAL_RCC_GetSysClockFreq+0x2a>
 800132a:	4804      	ldr	r0, [pc, #16]	; (800133c <HAL_RCC_GetSysClockFreq+0x44>)
 800132c:	e7fa      	b.n	8001324 <HAL_RCC_GetSysClockFreq+0x2c>
 800132e:	46c0      	nop			; (mov r8, r8)
 8001330:	40021000 	.word	0x40021000
 8001334:	08001904 	.word	0x08001904
 8001338:	08001914 	.word	0x08001914
 800133c:	007a1200 	.word	0x007a1200
 8001340:	003d0900 	.word	0x003d0900

08001344 <HAL_RCC_ClockConfig>:
 8001344:	b5f7      	push	{r0, r1, r2, r4, r5, r6, r7, lr}
 8001346:	0005      	movs	r5, r0
 8001348:	000e      	movs	r6, r1
 800134a:	2800      	cmp	r0, #0
 800134c:	d101      	bne.n	8001352 <HAL_RCC_ClockConfig+0xe>
 800134e:	2001      	movs	r0, #1
 8001350:	bdfe      	pop	{r1, r2, r3, r4, r5, r6, r7, pc}
 8001352:	2201      	movs	r2, #1
 8001354:	4c37      	ldr	r4, [pc, #220]	; (8001434 <HAL_RCC_ClockConfig+0xf0>)
 8001356:	6823      	ldr	r3, [r4, #0]
 8001358:	4013      	ands	r3, r2
 800135a:	428b      	cmp	r3, r1
 800135c:	d31c      	bcc.n	8001398 <HAL_RCC_ClockConfig+0x54>
 800135e:	6829      	ldr	r1, [r5, #0]
 8001360:	078b      	lsls	r3, r1, #30
 8001362:	d422      	bmi.n	80013aa <HAL_RCC_ClockConfig+0x66>
 8001364:	07cb      	lsls	r3, r1, #31
 8001366:	d42f      	bmi.n	80013c8 <HAL_RCC_ClockConfig+0x84>
 8001368:	2301      	movs	r3, #1
 800136a:	6822      	ldr	r2, [r4, #0]
 800136c:	401a      	ands	r2, r3
 800136e:	42b2      	cmp	r2, r6
 8001370:	d851      	bhi.n	8001416 <HAL_RCC_ClockConfig+0xd2>
 8001372:	682b      	ldr	r3, [r5, #0]
 8001374:	4c30      	ldr	r4, [pc, #192]	; (8001438 <HAL_RCC_ClockConfig+0xf4>)
 8001376:	075b      	lsls	r3, r3, #29
 8001378:	d454      	bmi.n	8001424 <HAL_RCC_ClockConfig+0xe0>
 800137a:	f7ff ffbd 	bl	80012f8 <HAL_RCC_GetSysClockFreq>
 800137e:	6863      	ldr	r3, [r4, #4]
 8001380:	4a2e      	ldr	r2, [pc, #184]	; (800143c <HAL_RCC_ClockConfig+0xf8>)
 8001382:	061b      	lsls	r3, r3, #24
 8001384:	0f1b      	lsrs	r3, r3, #28
 8001386:	5cd3      	ldrb	r3, [r2, r3]
 8001388:	40d8      	lsrs	r0, r3
 800138a:	4b2d      	ldr	r3, [pc, #180]	; (8001440 <HAL_RCC_ClockConfig+0xfc>)
 800138c:	6018      	str	r0, [r3, #0]
 800138e:	2000      	movs	r0, #0
 8001390:	f7ff fc4c 	bl	8000c2c <HAL_InitTick>
 8001394:	2000      	movs	r0, #0
 8001396:	e7db      	b.n	8001350 <HAL_RCC_ClockConfig+0xc>
 8001398:	6823      	ldr	r3, [r4, #0]
 800139a:	4393      	bics	r3, r2
 800139c:	430b      	orrs	r3, r1
 800139e:	6023      	str	r3, [r4, #0]
 80013a0:	6823      	ldr	r3, [r4, #0]
 80013a2:	4013      	ands	r3, r2
 80013a4:	428b      	cmp	r3, r1
 80013a6:	d1d2      	bne.n	800134e <HAL_RCC_ClockConfig+0xa>
 80013a8:	e7d9      	b.n	800135e <HAL_RCC_ClockConfig+0x1a>
 80013aa:	4a23      	ldr	r2, [pc, #140]	; (8001438 <HAL_RCC_ClockConfig+0xf4>)
 80013ac:	074b      	lsls	r3, r1, #29
 80013ae:	d504      	bpl.n	80013ba <HAL_RCC_ClockConfig+0x76>
 80013b0:	23e0      	movs	r3, #224	; 0xe0
 80013b2:	6850      	ldr	r0, [r2, #4]
 80013b4:	00db      	lsls	r3, r3, #3
 80013b6:	4303      	orrs	r3, r0
 80013b8:	6053      	str	r3, [r2, #4]
 80013ba:	20f0      	movs	r0, #240	; 0xf0
 80013bc:	6853      	ldr	r3, [r2, #4]
 80013be:	4383      	bics	r3, r0
 80013c0:	68a8      	ldr	r0, [r5, #8]
 80013c2:	4303      	orrs	r3, r0
 80013c4:	6053      	str	r3, [r2, #4]
 80013c6:	e7cd      	b.n	8001364 <HAL_RCC_ClockConfig+0x20>
 80013c8:	4f1b      	ldr	r7, [pc, #108]	; (8001438 <HAL_RCC_ClockConfig+0xf4>)
 80013ca:	686a      	ldr	r2, [r5, #4]
 80013cc:	683b      	ldr	r3, [r7, #0]
 80013ce:	2a01      	cmp	r2, #1
 80013d0:	d119      	bne.n	8001406 <HAL_RCC_ClockConfig+0xc2>
 80013d2:	039b      	lsls	r3, r3, #14
 80013d4:	d5bb      	bpl.n	800134e <HAL_RCC_ClockConfig+0xa>
 80013d6:	2103      	movs	r1, #3
 80013d8:	687b      	ldr	r3, [r7, #4]
 80013da:	438b      	bics	r3, r1
 80013dc:	4313      	orrs	r3, r2
 80013de:	607b      	str	r3, [r7, #4]
 80013e0:	f7ff fc64 	bl	8000cac <HAL_GetTick>
 80013e4:	9001      	str	r0, [sp, #4]
 80013e6:	230c      	movs	r3, #12
 80013e8:	687a      	ldr	r2, [r7, #4]
 80013ea:	401a      	ands	r2, r3
 80013ec:	686b      	ldr	r3, [r5, #4]
 80013ee:	009b      	lsls	r3, r3, #2
 80013f0:	429a      	cmp	r2, r3
 80013f2:	d0b9      	beq.n	8001368 <HAL_RCC_ClockConfig+0x24>
 80013f4:	f7ff fc5a 	bl	8000cac <HAL_GetTick>
 80013f8:	9b01      	ldr	r3, [sp, #4]
 80013fa:	1ac0      	subs	r0, r0, r3
 80013fc:	4b11      	ldr	r3, [pc, #68]	; (8001444 <HAL_RCC_ClockConfig+0x100>)
 80013fe:	4298      	cmp	r0, r3
 8001400:	d9f1      	bls.n	80013e6 <HAL_RCC_ClockConfig+0xa2>
 8001402:	2003      	movs	r0, #3
 8001404:	e7a4      	b.n	8001350 <HAL_RCC_ClockConfig+0xc>
 8001406:	2a02      	cmp	r2, #2
 8001408:	d102      	bne.n	8001410 <HAL_RCC_ClockConfig+0xcc>
 800140a:	019b      	lsls	r3, r3, #6
 800140c:	d4e3      	bmi.n	80013d6 <HAL_RCC_ClockConfig+0x92>
 800140e:	e79e      	b.n	800134e <HAL_RCC_ClockConfig+0xa>
 8001410:	079b      	lsls	r3, r3, #30
 8001412:	d4e0      	bmi.n	80013d6 <HAL_RCC_ClockConfig+0x92>
 8001414:	e79b      	b.n	800134e <HAL_RCC_ClockConfig+0xa>
 8001416:	6822      	ldr	r2, [r4, #0]
 8001418:	439a      	bics	r2, r3
 800141a:	6022      	str	r2, [r4, #0]
 800141c:	6822      	ldr	r2, [r4, #0]
 800141e:	421a      	tst	r2, r3
 8001420:	d0a7      	beq.n	8001372 <HAL_RCC_ClockConfig+0x2e>
 8001422:	e794      	b.n	800134e <HAL_RCC_ClockConfig+0xa>
 8001424:	6863      	ldr	r3, [r4, #4]
 8001426:	4a08      	ldr	r2, [pc, #32]	; (8001448 <HAL_RCC_ClockConfig+0x104>)
 8001428:	4013      	ands	r3, r2
 800142a:	68ea      	ldr	r2, [r5, #12]
 800142c:	4313      	orrs	r3, r2
 800142e:	6063      	str	r3, [r4, #4]
 8001430:	e7a3      	b.n	800137a <HAL_RCC_ClockConfig+0x36>
 8001432:	46c0      	nop			; (mov r8, r8)
 8001434:	40022000 	.word	0x40022000
 8001438:	40021000 	.word	0x40021000
 800143c:	080018f4 	.word	0x080018f4
 8001440:	20000008 	.word	0x20000008
 8001444:	00001388 	.word	0x00001388
 8001448:	fffff8ff 	.word	0xfffff8ff

0800144c <HAL_TIM_Base_Start_IT>:
 800144c:	0002      	movs	r2, r0
 800144e:	0003      	movs	r3, r0
 8001450:	2001      	movs	r0, #1
 8001452:	323d      	adds	r2, #61	; 0x3d
 8001454:	7811      	ldrb	r1, [r2, #0]
 8001456:	4281      	cmp	r1, r0
 8001458:	d119      	bne.n	800148e <HAL_TIM_Base_Start_IT+0x42>
 800145a:	2102      	movs	r1, #2
 800145c:	7011      	strb	r1, [r2, #0]
 800145e:	681b      	ldr	r3, [r3, #0]
 8001460:	68da      	ldr	r2, [r3, #12]
 8001462:	4302      	orrs	r2, r0
 8001464:	60da      	str	r2, [r3, #12]
 8001466:	4a0d      	ldr	r2, [pc, #52]	; (800149c <HAL_TIM_Base_Start_IT+0x50>)
 8001468:	4293      	cmp	r3, r2
 800146a:	d006      	beq.n	800147a <HAL_TIM_Base_Start_IT+0x2e>
 800146c:	2280      	movs	r2, #128	; 0x80
 800146e:	05d2      	lsls	r2, r2, #23
 8001470:	4293      	cmp	r3, r2
 8001472:	d002      	beq.n	800147a <HAL_TIM_Base_Start_IT+0x2e>
 8001474:	4a0a      	ldr	r2, [pc, #40]	; (80014a0 <HAL_TIM_Base_Start_IT+0x54>)
 8001476:	4293      	cmp	r3, r2
 8001478:	d10a      	bne.n	8001490 <HAL_TIM_Base_Start_IT+0x44>
 800147a:	2107      	movs	r1, #7
 800147c:	689a      	ldr	r2, [r3, #8]
 800147e:	2000      	movs	r0, #0
 8001480:	400a      	ands	r2, r1
 8001482:	2a06      	cmp	r2, #6
 8001484:	d003      	beq.n	800148e <HAL_TIM_Base_Start_IT+0x42>
 8001486:	2201      	movs	r2, #1
 8001488:	6819      	ldr	r1, [r3, #0]
 800148a:	430a      	orrs	r2, r1
 800148c:	601a      	str	r2, [r3, #0]
 800148e:	4770      	bx	lr
 8001490:	681a      	ldr	r2, [r3, #0]
 8001492:	4310      	orrs	r0, r2
 8001494:	6018      	str	r0, [r3, #0]
 8001496:	2000      	movs	r0, #0
 8001498:	e7f9      	b.n	800148e <HAL_TIM_Base_Start_IT+0x42>
 800149a:	46c0      	nop			; (mov r8, r8)
 800149c:	40012c00 	.word	0x40012c00
 80014a0:	40000400 	.word	0x40000400

080014a4 <HAL_TIM_OC_DelayElapsedCallback>:
 80014a4:	4770      	bx	lr

080014a6 <HAL_TIM_IC_CaptureCallback>:
 80014a6:	4770      	bx	lr

080014a8 <HAL_TIM_PWM_PulseFinishedCallback>:
 80014a8:	4770      	bx	lr

080014aa <HAL_TIM_TriggerCallback>:
 80014aa:	4770      	bx	lr

080014ac <HAL_TIM_IRQHandler>:
 80014ac:	2202      	movs	r2, #2
 80014ae:	6803      	ldr	r3, [r0, #0]
 80014b0:	b570      	push	{r4, r5, r6, lr}
 80014b2:	68dd      	ldr	r5, [r3, #12]
 80014b4:	691e      	ldr	r6, [r3, #16]
 80014b6:	0004      	movs	r4, r0
 80014b8:	4216      	tst	r6, r2
 80014ba:	d00d      	beq.n	80014d8 <HAL_TIM_IRQHandler+0x2c>
 80014bc:	4215      	tst	r5, r2
 80014be:	d00b      	beq.n	80014d8 <HAL_TIM_IRQHandler+0x2c>
 80014c0:	3a05      	subs	r2, #5
 80014c2:	611a      	str	r2, [r3, #16]
 80014c4:	3204      	adds	r2, #4
 80014c6:	7702      	strb	r2, [r0, #28]
 80014c8:	699b      	ldr	r3, [r3, #24]
 80014ca:	079b      	lsls	r3, r3, #30
 80014cc:	d100      	bne.n	80014d0 <HAL_TIM_IRQHandler+0x24>
 80014ce:	e071      	b.n	80015b4 <HAL_TIM_IRQHandler+0x108>
 80014d0:	f7ff ffe9 	bl	80014a6 <HAL_TIM_IC_CaptureCallback>
 80014d4:	2300      	movs	r3, #0
 80014d6:	7723      	strb	r3, [r4, #28]
 80014d8:	2304      	movs	r3, #4
 80014da:	421e      	tst	r6, r3
 80014dc:	d011      	beq.n	8001502 <HAL_TIM_IRQHandler+0x56>
 80014de:	421d      	tst	r5, r3
 80014e0:	d00f      	beq.n	8001502 <HAL_TIM_IRQHandler+0x56>
 80014e2:	2205      	movs	r2, #5
 80014e4:	6823      	ldr	r3, [r4, #0]
 80014e6:	4252      	negs	r2, r2
 80014e8:	611a      	str	r2, [r3, #16]
 80014ea:	3207      	adds	r2, #7
 80014ec:	7722      	strb	r2, [r4, #28]
 80014ee:	699a      	ldr	r2, [r3, #24]
 80014f0:	23c0      	movs	r3, #192	; 0xc0
 80014f2:	009b      	lsls	r3, r3, #2
 80014f4:	0020      	movs	r0, r4
 80014f6:	421a      	tst	r2, r3
 80014f8:	d062      	beq.n	80015c0 <HAL_TIM_IRQHandler+0x114>
 80014fa:	f7ff ffd4 	bl	80014a6 <HAL_TIM_IC_CaptureCallback>
 80014fe:	2300      	movs	r3, #0
 8001500:	7723      	strb	r3, [r4, #28]
 8001502:	2308      	movs	r3, #8
 8001504:	421e      	tst	r6, r3
 8001506:	d00f      	beq.n	8001528 <HAL_TIM_IRQHandler+0x7c>
 8001508:	421d      	tst	r5, r3
 800150a:	d00d      	beq.n	8001528 <HAL_TIM_IRQHandler+0x7c>
 800150c:	2209      	movs	r2, #9
 800150e:	6823      	ldr	r3, [r4, #0]
 8001510:	4252      	negs	r2, r2
 8001512:	611a      	str	r2, [r3, #16]
 8001514:	320d      	adds	r2, #13
 8001516:	7722      	strb	r2, [r4, #28]
 8001518:	69db      	ldr	r3, [r3, #28]
 800151a:	0020      	movs	r0, r4
 800151c:	079b      	lsls	r3, r3, #30
 800151e:	d055      	beq.n	80015cc <HAL_TIM_IRQHandler+0x120>
 8001520:	f7ff ffc1 	bl	80014a6 <HAL_TIM_IC_CaptureCallback>
 8001524:	2300      	movs	r3, #0
 8001526:	7723      	strb	r3, [r4, #28]
 8001528:	2310      	movs	r3, #16
 800152a:	421e      	tst	r6, r3
 800152c:	d011      	beq.n	8001552 <HAL_TIM_IRQHandler+0xa6>
 800152e:	421d      	tst	r5, r3
 8001530:	d00f      	beq.n	8001552 <HAL_TIM_IRQHandler+0xa6>
 8001532:	2211      	movs	r2, #17
 8001534:	6823      	ldr	r3, [r4, #0]
 8001536:	4252      	negs	r2, r2
 8001538:	611a      	str	r2, [r3, #16]
 800153a:	3219      	adds	r2, #25
 800153c:	7722      	strb	r2, [r4, #28]
 800153e:	69da      	ldr	r2, [r3, #28]
 8001540:	23c0      	movs	r3, #192	; 0xc0
 8001542:	009b      	lsls	r3, r3, #2
 8001544:	0020      	movs	r0, r4
 8001546:	421a      	tst	r2, r3
 8001548:	d046      	beq.n	80015d8 <HAL_TIM_IRQHandler+0x12c>
 800154a:	f7ff ffac 	bl	80014a6 <HAL_TIM_IC_CaptureCallback>
 800154e:	2300      	movs	r3, #0
 8001550:	7723      	strb	r3, [r4, #28]
 8001552:	2301      	movs	r3, #1
 8001554:	421e      	tst	r6, r3
 8001556:	d008      	beq.n	800156a <HAL_TIM_IRQHandler+0xbe>
 8001558:	421d      	tst	r5, r3
 800155a:	d006      	beq.n	800156a <HAL_TIM_IRQHandler+0xbe>
 800155c:	2202      	movs	r2, #2
 800155e:	6823      	ldr	r3, [r4, #0]
 8001560:	4252      	negs	r2, r2
 8001562:	0020      	movs	r0, r4
 8001564:	611a      	str	r2, [r3, #16]
 8001566:	f7ff fb31 	bl	8000bcc <HAL_TIM_PeriodElapsedCallback>
 800156a:	2380      	movs	r3, #128	; 0x80
 800156c:	421e      	tst	r6, r3
 800156e:	d008      	beq.n	8001582 <HAL_TIM_IRQHandler+0xd6>
 8001570:	421d      	tst	r5, r3
 8001572:	d006      	beq.n	8001582 <HAL_TIM_IRQHandler+0xd6>
 8001574:	2281      	movs	r2, #129	; 0x81
 8001576:	6823      	ldr	r3, [r4, #0]
 8001578:	4252      	negs	r2, r2
 800157a:	0020      	movs	r0, r4
 800157c:	611a      	str	r2, [r3, #16]
 800157e:	f000 f980 	bl	8001882 <HAL_TIMEx_BreakCallback>
 8001582:	2340      	movs	r3, #64	; 0x40
 8001584:	421e      	tst	r6, r3
 8001586:	d008      	beq.n	800159a <HAL_TIM_IRQHandler+0xee>
 8001588:	421d      	tst	r5, r3
 800158a:	d006      	beq.n	800159a <HAL_TIM_IRQHandler+0xee>
 800158c:	2241      	movs	r2, #65	; 0x41
 800158e:	6823      	ldr	r3, [r4, #0]
 8001590:	4252      	negs	r2, r2
 8001592:	0020      	movs	r0, r4
 8001594:	611a      	str	r2, [r3, #16]
 8001596:	f7ff ff88 	bl	80014aa <HAL_TIM_TriggerCallback>
 800159a:	2320      	movs	r3, #32
 800159c:	421e      	tst	r6, r3
 800159e:	d008      	beq.n	80015b2 <HAL_TIM_IRQHandler+0x106>
 80015a0:	421d      	tst	r5, r3
 80015a2:	d006      	beq.n	80015b2 <HAL_TIM_IRQHandler+0x106>
 80015a4:	2221      	movs	r2, #33	; 0x21
 80015a6:	6823      	ldr	r3, [r4, #0]
 80015a8:	4252      	negs	r2, r2
 80015aa:	0020      	movs	r0, r4
 80015ac:	611a      	str	r2, [r3, #16]
 80015ae:	f000 f967 	bl	8001880 <HAL_TIMEx_CommutCallback>
 80015b2:	bd70      	pop	{r4, r5, r6, pc}
 80015b4:	f7ff ff76 	bl	80014a4 <HAL_TIM_OC_DelayElapsedCallback>
 80015b8:	0020      	movs	r0, r4
 80015ba:	f7ff ff75 	bl	80014a8 <HAL_TIM_PWM_PulseFinishedCallback>
 80015be:	e789      	b.n	80014d4 <HAL_TIM_IRQHandler+0x28>
 80015c0:	f7ff ff70 	bl	80014a4 <HAL_TIM_OC_DelayElapsedCallback>
 80015c4:	0020      	movs	r0, r4
 80015c6:	f7ff ff6f 	bl	80014a8 <HAL_TIM_PWM_PulseFinishedCallback>
 80015ca:	e798      	b.n	80014fe <HAL_TIM_IRQHandler+0x52>
 80015cc:	f7ff ff6a 	bl	80014a4 <HAL_TIM_OC_DelayElapsedCallback>
 80015d0:	0020      	movs	r0, r4
 80015d2:	f7ff ff69 	bl	80014a8 <HAL_TIM_PWM_PulseFinishedCallback>
 80015d6:	e7a5      	b.n	8001524 <HAL_TIM_IRQHandler+0x78>
 80015d8:	f7ff ff64 	bl	80014a4 <HAL_TIM_OC_DelayElapsedCallback>
 80015dc:	0020      	movs	r0, r4
 80015de:	f7ff ff63 	bl	80014a8 <HAL_TIM_PWM_PulseFinishedCallback>
 80015e2:	e7b4      	b.n	800154e <HAL_TIM_IRQHandler+0xa2>

080015e4 <TIM_Base_SetConfig>:
 80015e4:	4a20      	ldr	r2, [pc, #128]	; (8001668 <TIM_Base_SetConfig+0x84>)
 80015e6:	b510      	push	{r4, lr}
 80015e8:	6803      	ldr	r3, [r0, #0]
 80015ea:	4290      	cmp	r0, r2
 80015ec:	d006      	beq.n	80015fc <TIM_Base_SetConfig+0x18>
 80015ee:	2480      	movs	r4, #128	; 0x80
 80015f0:	05e4      	lsls	r4, r4, #23
 80015f2:	42a0      	cmp	r0, r4
 80015f4:	d002      	beq.n	80015fc <TIM_Base_SetConfig+0x18>
 80015f6:	4c1d      	ldr	r4, [pc, #116]	; (800166c <TIM_Base_SetConfig+0x88>)
 80015f8:	42a0      	cmp	r0, r4
 80015fa:	d10c      	bne.n	8001616 <TIM_Base_SetConfig+0x32>
 80015fc:	2470      	movs	r4, #112	; 0x70
 80015fe:	43a3      	bics	r3, r4
 8001600:	684c      	ldr	r4, [r1, #4]
 8001602:	4323      	orrs	r3, r4
 8001604:	4290      	cmp	r0, r2
 8001606:	d00f      	beq.n	8001628 <TIM_Base_SetConfig+0x44>
 8001608:	2480      	movs	r4, #128	; 0x80
 800160a:	05e4      	lsls	r4, r4, #23
 800160c:	42a0      	cmp	r0, r4
 800160e:	d00b      	beq.n	8001628 <TIM_Base_SetConfig+0x44>
 8001610:	4c16      	ldr	r4, [pc, #88]	; (800166c <TIM_Base_SetConfig+0x88>)
 8001612:	42a0      	cmp	r0, r4
 8001614:	d008      	beq.n	8001628 <TIM_Base_SetConfig+0x44>
 8001616:	4c16      	ldr	r4, [pc, #88]	; (8001670 <TIM_Base_SetConfig+0x8c>)
 8001618:	42a0      	cmp	r0, r4
 800161a:	d005      	beq.n	8001628 <TIM_Base_SetConfig+0x44>
 800161c:	4c15      	ldr	r4, [pc, #84]	; (8001674 <TIM_Base_SetConfig+0x90>)
 800161e:	42a0      	cmp	r0, r4
 8001620:	d002      	beq.n	8001628 <TIM_Base_SetConfig+0x44>
 8001622:	4c15      	ldr	r4, [pc, #84]	; (8001678 <TIM_Base_SetConfig+0x94>)
 8001624:	42a0      	cmp	r0, r4
 8001626:	d103      	bne.n	8001630 <TIM_Base_SetConfig+0x4c>
 8001628:	4c14      	ldr	r4, [pc, #80]	; (800167c <TIM_Base_SetConfig+0x98>)
 800162a:	4023      	ands	r3, r4
 800162c:	68cc      	ldr	r4, [r1, #12]
 800162e:	4323      	orrs	r3, r4
 8001630:	2480      	movs	r4, #128	; 0x80
 8001632:	43a3      	bics	r3, r4
 8001634:	694c      	ldr	r4, [r1, #20]
 8001636:	4323      	orrs	r3, r4
 8001638:	6003      	str	r3, [r0, #0]
 800163a:	688b      	ldr	r3, [r1, #8]
 800163c:	62c3      	str	r3, [r0, #44]	; 0x2c
 800163e:	680b      	ldr	r3, [r1, #0]
 8001640:	6283      	str	r3, [r0, #40]	; 0x28
 8001642:	4290      	cmp	r0, r2
 8001644:	d005      	beq.n	8001652 <TIM_Base_SetConfig+0x6e>
 8001646:	4b0b      	ldr	r3, [pc, #44]	; (8001674 <TIM_Base_SetConfig+0x90>)
 8001648:	4298      	cmp	r0, r3
 800164a:	d002      	beq.n	8001652 <TIM_Base_SetConfig+0x6e>
 800164c:	4b0a      	ldr	r3, [pc, #40]	; (8001678 <TIM_Base_SetConfig+0x94>)
 800164e:	4298      	cmp	r0, r3
 8001650:	d101      	bne.n	8001656 <TIM_Base_SetConfig+0x72>
 8001652:	690b      	ldr	r3, [r1, #16]
 8001654:	6303      	str	r3, [r0, #48]	; 0x30
 8001656:	2201      	movs	r2, #1
 8001658:	6142      	str	r2, [r0, #20]
 800165a:	6903      	ldr	r3, [r0, #16]
 800165c:	4213      	tst	r3, r2
 800165e:	d002      	beq.n	8001666 <TIM_Base_SetConfig+0x82>
 8001660:	6903      	ldr	r3, [r0, #16]
 8001662:	4393      	bics	r3, r2
 8001664:	6103      	str	r3, [r0, #16]
 8001666:	bd10      	pop	{r4, pc}
 8001668:	40012c00 	.word	0x40012c00
 800166c:	40000400 	.word	0x40000400
 8001670:	40002000 	.word	0x40002000
 8001674:	40014400 	.word	0x40014400
 8001678:	40014800 	.word	0x40014800
 800167c:	fffffcff 	.word	0xfffffcff

08001680 <HAL_TIM_Base_Init>:
 8001680:	b570      	push	{r4, r5, r6, lr}
 8001682:	0004      	movs	r4, r0
 8001684:	2001      	movs	r0, #1
 8001686:	2c00      	cmp	r4, #0
 8001688:	d021      	beq.n	80016ce <HAL_TIM_Base_Init+0x4e>
 800168a:	0025      	movs	r5, r4
 800168c:	353d      	adds	r5, #61	; 0x3d
 800168e:	782b      	ldrb	r3, [r5, #0]
 8001690:	b2da      	uxtb	r2, r3
 8001692:	2b00      	cmp	r3, #0
 8001694:	d105      	bne.n	80016a2 <HAL_TIM_Base_Init+0x22>
 8001696:	0023      	movs	r3, r4
 8001698:	333c      	adds	r3, #60	; 0x3c
 800169a:	0020      	movs	r0, r4
 800169c:	701a      	strb	r2, [r3, #0]
 800169e:	f7ff fa3f 	bl	8000b20 <HAL_TIM_Base_MspInit>
 80016a2:	2302      	movs	r3, #2
 80016a4:	702b      	strb	r3, [r5, #0]
 80016a6:	6820      	ldr	r0, [r4, #0]
 80016a8:	1d21      	adds	r1, r4, #4
 80016aa:	f7ff ff9b 	bl	80015e4 <TIM_Base_SetConfig>
 80016ae:	0022      	movs	r2, r4
 80016b0:	2301      	movs	r3, #1
 80016b2:	2000      	movs	r0, #0
 80016b4:	3246      	adds	r2, #70	; 0x46
 80016b6:	7013      	strb	r3, [r2, #0]
 80016b8:	3445      	adds	r4, #69	; 0x45
 80016ba:	3a08      	subs	r2, #8
 80016bc:	7013      	strb	r3, [r2, #0]
 80016be:	7053      	strb	r3, [r2, #1]
 80016c0:	7093      	strb	r3, [r2, #2]
 80016c2:	70d3      	strb	r3, [r2, #3]
 80016c4:	7113      	strb	r3, [r2, #4]
 80016c6:	7153      	strb	r3, [r2, #5]
 80016c8:	7193      	strb	r3, [r2, #6]
 80016ca:	7023      	strb	r3, [r4, #0]
 80016cc:	702b      	strb	r3, [r5, #0]
 80016ce:	bd70      	pop	{r4, r5, r6, pc}

080016d0 <TIM_ETR_SetConfig>:
 80016d0:	b530      	push	{r4, r5, lr}
 80016d2:	6884      	ldr	r4, [r0, #8]
 80016d4:	4d03      	ldr	r5, [pc, #12]	; (80016e4 <TIM_ETR_SetConfig+0x14>)
 80016d6:	430a      	orrs	r2, r1
 80016d8:	021b      	lsls	r3, r3, #8
 80016da:	402c      	ands	r4, r5
 80016dc:	4313      	orrs	r3, r2
 80016de:	4323      	orrs	r3, r4
 80016e0:	6083      	str	r3, [r0, #8]
 80016e2:	bd30      	pop	{r4, r5, pc}
 80016e4:	ffff00ff 	.word	0xffff00ff

080016e8 <HAL_TIM_ConfigClockSource>:
 80016e8:	b5f8      	push	{r3, r4, r5, r6, r7, lr}
 80016ea:	0005      	movs	r5, r0
 80016ec:	2302      	movs	r3, #2
 80016ee:	353c      	adds	r5, #60	; 0x3c
 80016f0:	0004      	movs	r4, r0
 80016f2:	7828      	ldrb	r0, [r5, #0]
 80016f4:	001a      	movs	r2, r3
 80016f6:	2801      	cmp	r0, #1
 80016f8:	d01d      	beq.n	8001736 <HAL_TIM_ConfigClockSource+0x4e>
 80016fa:	0026      	movs	r6, r4
 80016fc:	2701      	movs	r7, #1
 80016fe:	363d      	adds	r6, #61	; 0x3d
 8001700:	702f      	strb	r7, [r5, #0]
 8001702:	7033      	strb	r3, [r6, #0]
 8001704:	6820      	ldr	r0, [r4, #0]
 8001706:	4a46      	ldr	r2, [pc, #280]	; (8001820 <HAL_TIM_ConfigClockSource+0x138>)
 8001708:	6883      	ldr	r3, [r0, #8]
 800170a:	4013      	ands	r3, r2
 800170c:	6083      	str	r3, [r0, #8]
 800170e:	680b      	ldr	r3, [r1, #0]
 8001710:	2b60      	cmp	r3, #96	; 0x60
 8001712:	d057      	beq.n	80017c4 <HAL_TIM_ConfigClockSource+0xdc>
 8001714:	d833      	bhi.n	800177e <HAL_TIM_ConfigClockSource+0x96>
 8001716:	2b40      	cmp	r3, #64	; 0x40
 8001718:	d100      	bne.n	800171c <HAL_TIM_ConfigClockSource+0x34>
 800171a:	e06b      	b.n	80017f4 <HAL_TIM_ConfigClockSource+0x10c>
 800171c:	d815      	bhi.n	800174a <HAL_TIM_ConfigClockSource+0x62>
 800171e:	2b20      	cmp	r3, #32
 8001720:	d00d      	beq.n	800173e <HAL_TIM_ConfigClockSource+0x56>
 8001722:	d80a      	bhi.n	800173a <HAL_TIM_ConfigClockSource+0x52>
 8001724:	2210      	movs	r2, #16
 8001726:	0019      	movs	r1, r3
 8001728:	4391      	bics	r1, r2
 800172a:	d008      	beq.n	800173e <HAL_TIM_ConfigClockSource+0x56>
 800172c:	003a      	movs	r2, r7
 800172e:	2301      	movs	r3, #1
 8001730:	7033      	strb	r3, [r6, #0]
 8001732:	2300      	movs	r3, #0
 8001734:	702b      	strb	r3, [r5, #0]
 8001736:	0010      	movs	r0, r2
 8001738:	bdf8      	pop	{r3, r4, r5, r6, r7, pc}
 800173a:	2b30      	cmp	r3, #48	; 0x30
 800173c:	d1f6      	bne.n	800172c <HAL_TIM_ConfigClockSource+0x44>
 800173e:	2170      	movs	r1, #112	; 0x70
 8001740:	6882      	ldr	r2, [r0, #8]
 8001742:	438a      	bics	r2, r1
 8001744:	4313      	orrs	r3, r2
 8001746:	2207      	movs	r2, #7
 8001748:	e016      	b.n	8001778 <HAL_TIM_ConfigClockSource+0x90>
 800174a:	2b50      	cmp	r3, #80	; 0x50
 800174c:	d1ee      	bne.n	800172c <HAL_TIM_ConfigClockSource+0x44>
 800174e:	684a      	ldr	r2, [r1, #4]
 8001750:	68cb      	ldr	r3, [r1, #12]
 8001752:	6a01      	ldr	r1, [r0, #32]
 8001754:	6a04      	ldr	r4, [r0, #32]
 8001756:	011b      	lsls	r3, r3, #4
 8001758:	43bc      	bics	r4, r7
 800175a:	27f0      	movs	r7, #240	; 0xf0
 800175c:	6204      	str	r4, [r0, #32]
 800175e:	6984      	ldr	r4, [r0, #24]
 8001760:	43bc      	bics	r4, r7
 8001762:	4323      	orrs	r3, r4
 8001764:	240a      	movs	r4, #10
 8001766:	43a1      	bics	r1, r4
 8001768:	430a      	orrs	r2, r1
 800176a:	6183      	str	r3, [r0, #24]
 800176c:	6202      	str	r2, [r0, #32]
 800176e:	2270      	movs	r2, #112	; 0x70
 8001770:	6883      	ldr	r3, [r0, #8]
 8001772:	4393      	bics	r3, r2
 8001774:	001a      	movs	r2, r3
 8001776:	2357      	movs	r3, #87	; 0x57
 8001778:	4313      	orrs	r3, r2
 800177a:	6083      	str	r3, [r0, #8]
 800177c:	e016      	b.n	80017ac <HAL_TIM_ConfigClockSource+0xc4>
 800177e:	2280      	movs	r2, #128	; 0x80
 8001780:	0152      	lsls	r2, r2, #5
 8001782:	4694      	mov	ip, r2
 8001784:	2200      	movs	r2, #0
 8001786:	4563      	cmp	r3, ip
 8001788:	d0d1      	beq.n	800172e <HAL_TIM_ConfigClockSource+0x46>
 800178a:	2280      	movs	r2, #128	; 0x80
 800178c:	0192      	lsls	r2, r2, #6
 800178e:	4293      	cmp	r3, r2
 8001790:	d00e      	beq.n	80017b0 <HAL_TIM_ConfigClockSource+0xc8>
 8001792:	003a      	movs	r2, r7
 8001794:	2b70      	cmp	r3, #112	; 0x70
 8001796:	d1ca      	bne.n	800172e <HAL_TIM_ConfigClockSource+0x46>
 8001798:	68cb      	ldr	r3, [r1, #12]
 800179a:	684a      	ldr	r2, [r1, #4]
 800179c:	6889      	ldr	r1, [r1, #8]
 800179e:	f7ff ff97 	bl	80016d0 <TIM_ETR_SetConfig>
 80017a2:	2377      	movs	r3, #119	; 0x77
 80017a4:	6822      	ldr	r2, [r4, #0]
 80017a6:	6891      	ldr	r1, [r2, #8]
 80017a8:	430b      	orrs	r3, r1
 80017aa:	6093      	str	r3, [r2, #8]
 80017ac:	2200      	movs	r2, #0
 80017ae:	e7be      	b.n	800172e <HAL_TIM_ConfigClockSource+0x46>
 80017b0:	68cb      	ldr	r3, [r1, #12]
 80017b2:	684a      	ldr	r2, [r1, #4]
 80017b4:	6889      	ldr	r1, [r1, #8]
 80017b6:	f7ff ff8b 	bl	80016d0 <TIM_ETR_SetConfig>
 80017ba:	2380      	movs	r3, #128	; 0x80
 80017bc:	6822      	ldr	r2, [r4, #0]
 80017be:	01db      	lsls	r3, r3, #7
 80017c0:	6891      	ldr	r1, [r2, #8]
 80017c2:	e7f1      	b.n	80017a8 <HAL_TIM_ConfigClockSource+0xc0>
 80017c4:	2710      	movs	r7, #16
 80017c6:	684b      	ldr	r3, [r1, #4]
 80017c8:	68ca      	ldr	r2, [r1, #12]
 80017ca:	6a01      	ldr	r1, [r0, #32]
 80017cc:	6a04      	ldr	r4, [r0, #32]
 80017ce:	0312      	lsls	r2, r2, #12
 80017d0:	43bc      	bics	r4, r7
 80017d2:	6204      	str	r4, [r0, #32]
 80017d4:	6984      	ldr	r4, [r0, #24]
 80017d6:	4f13      	ldr	r7, [pc, #76]	; (8001824 <HAL_TIM_ConfigClockSource+0x13c>)
 80017d8:	011b      	lsls	r3, r3, #4
 80017da:	403c      	ands	r4, r7
 80017dc:	4322      	orrs	r2, r4
 80017de:	24a0      	movs	r4, #160	; 0xa0
 80017e0:	6182      	str	r2, [r0, #24]
 80017e2:	2270      	movs	r2, #112	; 0x70
 80017e4:	43a1      	bics	r1, r4
 80017e6:	430b      	orrs	r3, r1
 80017e8:	6203      	str	r3, [r0, #32]
 80017ea:	6883      	ldr	r3, [r0, #8]
 80017ec:	4393      	bics	r3, r2
 80017ee:	001a      	movs	r2, r3
 80017f0:	2367      	movs	r3, #103	; 0x67
 80017f2:	e7c1      	b.n	8001778 <HAL_TIM_ConfigClockSource+0x90>
 80017f4:	684a      	ldr	r2, [r1, #4]
 80017f6:	68cb      	ldr	r3, [r1, #12]
 80017f8:	6a01      	ldr	r1, [r0, #32]
 80017fa:	6a04      	ldr	r4, [r0, #32]
 80017fc:	011b      	lsls	r3, r3, #4
 80017fe:	43bc      	bics	r4, r7
 8001800:	27f0      	movs	r7, #240	; 0xf0
 8001802:	6204      	str	r4, [r0, #32]
 8001804:	6984      	ldr	r4, [r0, #24]
 8001806:	43bc      	bics	r4, r7
 8001808:	4323      	orrs	r3, r4
 800180a:	240a      	movs	r4, #10
 800180c:	43a1      	bics	r1, r4
 800180e:	430a      	orrs	r2, r1
 8001810:	6183      	str	r3, [r0, #24]
 8001812:	6202      	str	r2, [r0, #32]
 8001814:	2270      	movs	r2, #112	; 0x70
 8001816:	6883      	ldr	r3, [r0, #8]
 8001818:	4393      	bics	r3, r2
 800181a:	001a      	movs	r2, r3
 800181c:	2347      	movs	r3, #71	; 0x47
 800181e:	e7ab      	b.n	8001778 <HAL_TIM_ConfigClockSource+0x90>
 8001820:	ffff0088 	.word	0xffff0088
 8001824:	ffff0fff 	.word	0xffff0fff

08001828 <HAL_TIMEx_MasterConfigSynchronization>:
 8001828:	b570      	push	{r4, r5, r6, lr}
 800182a:	0004      	movs	r4, r0
 800182c:	2202      	movs	r2, #2
 800182e:	343c      	adds	r4, #60	; 0x3c
 8001830:	7825      	ldrb	r5, [r4, #0]
 8001832:	0003      	movs	r3, r0
 8001834:	0010      	movs	r0, r2
 8001836:	2d01      	cmp	r5, #1
 8001838:	d01d      	beq.n	8001876 <HAL_TIMEx_MasterConfigSynchronization+0x4e>
 800183a:	001d      	movs	r5, r3
 800183c:	2670      	movs	r6, #112	; 0x70
 800183e:	353d      	adds	r5, #61	; 0x3d
 8001840:	702a      	strb	r2, [r5, #0]
 8001842:	681b      	ldr	r3, [r3, #0]
 8001844:	6858      	ldr	r0, [r3, #4]
 8001846:	689a      	ldr	r2, [r3, #8]
 8001848:	43b0      	bics	r0, r6
 800184a:	680e      	ldr	r6, [r1, #0]
 800184c:	4330      	orrs	r0, r6
 800184e:	6058      	str	r0, [r3, #4]
 8001850:	4809      	ldr	r0, [pc, #36]	; (8001878 <HAL_TIMEx_MasterConfigSynchronization+0x50>)
 8001852:	4283      	cmp	r3, r0
 8001854:	d006      	beq.n	8001864 <HAL_TIMEx_MasterConfigSynchronization+0x3c>
 8001856:	2080      	movs	r0, #128	; 0x80
 8001858:	05c0      	lsls	r0, r0, #23
 800185a:	4283      	cmp	r3, r0
 800185c:	d002      	beq.n	8001864 <HAL_TIMEx_MasterConfigSynchronization+0x3c>
 800185e:	4807      	ldr	r0, [pc, #28]	; (800187c <HAL_TIMEx_MasterConfigSynchronization+0x54>)
 8001860:	4283      	cmp	r3, r0
 8001862:	d104      	bne.n	800186e <HAL_TIMEx_MasterConfigSynchronization+0x46>
 8001864:	2080      	movs	r0, #128	; 0x80
 8001866:	6849      	ldr	r1, [r1, #4]
 8001868:	4382      	bics	r2, r0
 800186a:	430a      	orrs	r2, r1
 800186c:	609a      	str	r2, [r3, #8]
 800186e:	2301      	movs	r3, #1
 8001870:	2000      	movs	r0, #0
 8001872:	702b      	strb	r3, [r5, #0]
 8001874:	7020      	strb	r0, [r4, #0]
 8001876:	bd70      	pop	{r4, r5, r6, pc}
 8001878:	40012c00 	.word	0x40012c00
 800187c:	40000400 	.word	0x40000400

08001880 <HAL_TIMEx_CommutCallback>:
 8001880:	4770      	bx	lr

08001882 <HAL_TIMEx_BreakCallback>:
 8001882:	4770      	bx	lr

08001884 <__libc_init_array>:
 8001884:	b570      	push	{r4, r5, r6, lr}
 8001886:	2600      	movs	r6, #0
 8001888:	4d0c      	ldr	r5, [pc, #48]	; (80018bc <__libc_init_array+0x38>)
 800188a:	4c0d      	ldr	r4, [pc, #52]	; (80018c0 <__libc_init_array+0x3c>)
 800188c:	1b64      	subs	r4, r4, r5
 800188e:	10a4      	asrs	r4, r4, #2
 8001890:	42a6      	cmp	r6, r4
 8001892:	d109      	bne.n	80018a8 <__libc_init_array+0x24>
 8001894:	2600      	movs	r6, #0
 8001896:	f000 f821 	bl	80018dc <_init>
 800189a:	4d0a      	ldr	r5, [pc, #40]	; (80018c4 <__libc_init_array+0x40>)
 800189c:	4c0a      	ldr	r4, [pc, #40]	; (80018c8 <__libc_init_array+0x44>)
 800189e:	1b64      	subs	r4, r4, r5
 80018a0:	10a4      	asrs	r4, r4, #2
 80018a2:	42a6      	cmp	r6, r4
 80018a4:	d105      	bne.n	80018b2 <__libc_init_array+0x2e>
 80018a6:	bd70      	pop	{r4, r5, r6, pc}
 80018a8:	00b3      	lsls	r3, r6, #2
 80018aa:	58eb      	ldr	r3, [r5, r3]
 80018ac:	4798      	blx	r3
 80018ae:	3601      	adds	r6, #1
 80018b0:	e7ee      	b.n	8001890 <__libc_init_array+0xc>
 80018b2:	00b3      	lsls	r3, r6, #2
 80018b4:	58eb      	ldr	r3, [r5, r3]
 80018b6:	4798      	blx	r3
 80018b8:	3601      	adds	r6, #1
 80018ba:	e7f2      	b.n	80018a2 <__libc_init_array+0x1e>
 80018bc:	08001924 	.word	0x08001924
 80018c0:	08001924 	.word	0x08001924
 80018c4:	08001924 	.word	0x08001924
 80018c8:	08001928 	.word	0x08001928

080018cc <memset>:
 80018cc:	0003      	movs	r3, r0
 80018ce:	1882      	adds	r2, r0, r2
 80018d0:	4293      	cmp	r3, r2
 80018d2:	d100      	bne.n	80018d6 <memset+0xa>
 80018d4:	4770      	bx	lr
 80018d6:	7019      	strb	r1, [r3, #0]
 80018d8:	3301      	adds	r3, #1
 80018da:	e7f9      	b.n	80018d0 <memset+0x4>

080018dc <_init>:
 80018dc:	b5f8      	push	{r3, r4, r5, r6, r7, lr}
 80018de:	46c0      	nop			; (mov r8, r8)
 80018e0:	bcf8      	pop	{r3, r4, r5, r6, r7}
 80018e2:	bc08      	pop	{r3}
 80018e4:	469e      	mov	lr, r3
 80018e6:	4770      	bx	lr

080018e8 <_fini>:
 80018e8:	b5f8      	push	{r3, r4, r5, r6, r7, lr}
 80018ea:	46c0      	nop			; (mov r8, r8)
 80018ec:	bcf8      	pop	{r3, r4, r5, r6, r7}
 80018ee:	bc08      	pop	{r3}
 80018f0:	469e      	mov	lr, r3
 80018f2:	4770      	bx	lr
